(dp0
S'..\\__deployed\\images\\jeh-tech\\SumSeries.png'
p1
L2624971663L
sS'..\\__deployed\\images\\ui-bg_glass_55_fbf9ee_1x400.png'
p2
L1618703785L
sS'..\\__deployed\\google262535b904af2297.html'
p3
L174920219L
sS'..\\__deployed\\fonts\\junction-regular.eot'
p4
L1853402731L
sS'..\\__deployed\\images\\jeh-tech\\resistors_in_par.png'
p5
L3859527192L
sS'..\\__deployed\\images\\jeh-tech\\python\\subplt_shared_x_axis.png'
p6
L2459578870L
sS'..\\__deployed\\python\\pyplot.html'
p7
L272044865L
sS'..\\__deployed\\python\\ipython_notebooks.html'
p8
L846362794L
sS'..\\__deployed\\mathsy_stuff\\gaussians.html'
p9
L460222145L
sS'..\\__deployed\\javascript.html'
p10
L1534642966L
sS'..\\__deployed\\images\\jeh-tech\\loading_animation.gif'
p11
L366940378L
sS'..\\__deployed\\images\\jeh-tech\\python\\3d_array.png'
p12
L1364181974L
sS'..\\__deployed\\images\\jeh-tech\\icons\\computer.png'
p13
L186961852L
sS'..\\__deployed\\images\\ui-icons_888888_256x240.png'
p14
L3291416662L
sS'..\\__deployed\\images\\jeh-tech\\python\\pandas_landreg.png'
p15
L490140588L
sS'..\\__deployed\\images\\jeh-tech\\crypto_plaintext_problem.png'
p16
L3225659089L
sS'..\\__deployed\\images\\jeh-tech\\SimpleDB_MVC_Problem.png'
p17
L346366740L
sS'..\\__deployed\\images\\jeh-tech\\dot_product_yorick_1.vsd'
p18
L4224960114L
sS'..\\__deployed\\images\\jeh-tech\\solve_linear_equations.vsd'
p19
L2301301009L
sS'..\\__deployed\\git.html'
p20
L2689487364L
sS'..\\__deployed\\images\\jeh-tech\\dot_product_normal.vsd'
p21
L2713906654L
sS'..\\__deployed\\fonts\\junction-bold.woff'
p22
L418864482L
sS'..\\__deployed\\images\\ui-icons_454545_256x240.png'
p23
L1192642246L
sS'..\\__deployed\\images\\jeh-tech\\linewidth_html_canv.png'
p24
L315128115L
sS'..\\__deployed\\images\\jeh-tech\\yorick_boardcast_unit_dim.png'
p25
L373831379L
sS'..\\__deployed\\python\\pandas.html'
p26
L466547705L
sS'..\\__deployed\\images\\jeh-tech\\linewidth_html_canv_centre_pixel.png'
p27
L2030165465L
sS'..\\__deployed\\fonts\\junction-bold.ttf'
p28
L171150028L
sS'..\\__deployed\\images\\jeh-tech\\dot_product_yorick_4.vsd'
p29
L868285560L
sS'..\\__deployed\\images\\ui-bg_highlight-soft_0_9DB3C7_1x100.png'
p30
L1751200253L
sS'..\\__deployed\\downloadables\\TwistingTheTriad.PDF'
p31
L2222544967L
sS'..\\__deployed\\images\\ui-bg_glass_95_fef1ec_1x400.png'
p32
L3500241832L
sS'..\\__deployed\\images\\jeh-tech\\PCB_bkdg.jpg'
p33
L695619354L
sS'..\\__deployed\\images\\ui-icons_cd0a0a_256x240.png'
p34
L2485332548L
sS'..\\__deployed\\svn.html'
p35
L3732660574L
sS'..\\__deployed\\images\\jeh-tech\\python\\subplt_independent_x_axis.png'
p36
L2556713178L
sS'..\\__deployed\\jeh-monolith.js'
p37
L793047548L
sS'..\\__deployed\\images\\jeh-tech\\icons\\calendar.png'
p38
L2174384455L
sS'..\\__deployed\\images\\jeh-tech\\resistors_in_parallel.png'
p39
L789895985L
sS'..\\__deployed\\images\\jeh-tech\\solve_linear_equations_norm.png'
p40
L3177966244L
sS'..\\__deployed\\images\\jeh-tech\\yorick_pseudo_index.jpg'
p41
L3798556151L
sS'..\\__deployed\\images\\jeh-tech\\dot_product_yorick_3.vsd'
p42
L4146465518L
sS'..\\__deployed\\images\\jeh-tech\\ManageCertificates.png'
p43
L3033434108L
sS'..\\__deployed\\vi.html'
p44
L4032677616L
sS'..\\__deployed\\images\\jeh-tech\\icons\\comment (1).png'
p45
L2685515417L
sS'..\\__deployed\\images\\jeh-tech\\openquote1.gif'
p46
L1189697656L
sS'..\\__deployed\\fonts\\junction-regular.woff'
p47
L546278547L
sS'..\\__deployed\\images\\jeh-tech\\collapse.png'
p48
L3550564855L
sS'..\\__deployed\\images\\ui-bg_glass_75_dadada_1x400.png'
p49
L1941327539L
sS'..\\__deployed\\images\\ui-icons_2e83ff_256x240.png'
p50
L1447391960L
sS'..\\__deployed\\jeh-monolith.css'
p51
L3097092956L
sS'..\\__deployed\\images\\jeh-tech\\solve_linear_equations_oops.png'
p52
L2753359592L
sS'..\\__deployed\\images\\jeh-tech\\icons\\alert.png'
p53
L3579709017L
sS'..\\__deployed\\images\\jeh-tech\\python\\2d_array.png'
p54
L3399284519L
sS'..\\__deployed\\images\\ui-bg_glass_65_ffffff_1x400.png'
p55
L3786289852L
sS'..\\__deployed\\fonts\\GoudyStM-webfont.eot'
p56
L1905039233L
sS'..\\__deployed\\downloadables\\CS310GeneticAlgsProject.pdf'
p57
L3762612930L
sS'..\\__deployed\\html_canvas.html'
p58
L2022375261L
sS'..\\__deployed\\fonts\\leaguespartan-bold.svg'
p59
L3450498539L
sS'..\\__deployed\\images\\jeh-tech\\wheatstone_is_non_linear.png'
p60
L3555603379L
sS'..\\__deployed\\contact.html'
p61
L3515615290L
sS'..\\__deployed\\images\\jeh-tech\\dot_product_yorick_4.png'
p62
L3100869254L
sS'..\\__deployed\\images\\jeh-tech\\solve_linear_equations_oopsvsd.vsd'
p63
L871343761L
sS'..\\__deployed\\fonts\\leaguespartan-bold.eot'
p64
L3468735793L
sS'..\\__deployed\\images\\jeh-tech\\small_letter.png'
p65
L1976565072L
sS'..\\__deployed\\images\\jeh-tech\\voltage_divider.png'
p66
L3692898269L
sS'..\\__deployed\\mvc.html'
p67
L3715938581L
sS'..\\__deployed\\fonts\\junction-regular.ttf'
p68
L2027175246L
sS'..\\__deployed\\mysql.html'
p69
L1529797136L
sS'..\\__deployed\\python\\numpy.html'
p70
L1270668956L
sS'..\\__deployed\\downloadables\\notebooks\\output_css_2.ipynb'
p71
L2922861352L
sS'..\\__deployed\\fonts\\leaguespartan-bold.ttf'
p72
L117576886L
sS'..\\__deployed\\images\\jeh-tech\\solve_linear_equations.png'
p73
L2449082019L
sS'..\\__deployed\\images\\jeh-tech\\conventional_current.png'
p74
L867764297L
sS'..\\__deployed\\images\\jeh-tech\\solve_linear_equations_norm.vsd'
p75
L2068162402L
sS'..\\__deployed\\images\\jeh-tech\\yorick_broadcast.png'
p76
L1205122955L
sS'..\\__deployed\\linux_script.html'
p77
L235235780L
sS'..\\__deployed\\fonts\\leaguespartan-bold.woff2'
p78
L3825300268L
sS'..\\__deployed\\images\\jeh-tech\\dot_product_normal.png'
p79
L2978237173L
sS'..\\__deployed\\win_script.html'
p80
L3836594109L
sS'..\\__deployed\\images\\jeh-tech\\closequote1.gif'
p81
L800150224L
sS'..\\__deployed\\images\\jeh-tech\\dot_product_yorick_3.png'
p82
L1412312961L
sS'..\\__deployed\\images\\jeh-tech\\dot_product_yorick_2.png'
p83
L3153038181L
sS'..\\__deployed\\tst.html'
p84
L2625627270L
sS'..\\__deployed\\robots.txt'
p85
L1249323247L
sS'..\\__deployed\\images\\jeh-tech\\phasor_animation.gif'
p86
L569159480L
sS'..\\__deployed\\images\\jeh-tech\\PCB_bkdg_ORIG.jpg'
p87
L3983032631L
sS'..\\__deployed\\images\\jeh-tech\\wheatstone_bridge.png'
p88
L1675069042L
sS'..\\__deployed\\misc.html'
p89
L4275382047L
sS'..\\__deployed\\images\\jeh-tech\\icons\\comment.png'
p90
L2685515417L
sS'..\\__deployed\\images\\jeh-tech\\icons\\notepad - Copy.png'
p91
L2978188971L
sS'..\\__deployed\\R.html'
p92
L1814960981L
sS'..\\__deployed\\images\\jeh-tech\\current_divider.png'
p93
L2822002574L
sS'..\\__deployed\\images\\jeh-tech\\icons\\notepad.png'
p94
L1373989924L
sS'..\\__deployed\\xml.html'
p95
L3608525795L
sS'..\\__deployed\\images\\jeh-tech\\big_letter.png'
p96
L3182695786L
sS'..\\__deployed\\images\\jeh-tech\\icons\\remove.png'
p97
L1255171720L
sS'..\\__deployed\\reCaptchaSecret.txt'
p98
L43519141L
sS'..\\__deployed\\dsp\\deconvolution.html'
p99
L2889756810L
sS'..\\__deployed\\images\\jeh-tech\\icons\\tick.png'
p100
L3236721137L
sS'..\\__deployed\\images\\jeh-tech\\dot_product_yorick_2.vsd'
p101
L2259183631L
sS'..\\__deployed\\images\\jeh-tech\\Simple_DB_For_MVC_GUI.png'
p102
L1240744382L
sS'..\\__deployed\\images\\ui-bg_flat_75_ffffff_40x100.png'
p103
L4257363120L
sS'..\\__deployed\\images\\ui-bg_flat_0_aaaaaa_40x100.png'
p104
L2869310412L
sS'..\\__deployed\\images\\jeh-tech\\MVC_From_SmallTalk_Article.png'
p105
L4230329495L
sS'..\\__deployed\\images\\jeh-tech\\html5_canvas_half_pixel_rect.vsd'
p106
L992334237L
sS'..\\__deployed\\images\\jeh-tech\\TrustedRootCA_1.png'
p107
L2882934051L
sS'..\\__deployed\\test.html'
p108
L1174817358L
sS'..\\__deployed\\downloadables\\notebooks\\output_css_1.ipynb'
p109
L2104413969L
sS'..\\__deployed\\fonts\\GoudyStM-webfont.ttf'
p110
L990476620L
sS'..\\__deployed\\images\\jeh-tech\\icons\\alert - Copy.png'
p111
L3656024312L
sS'..\\__deployed\\images\\ui-bg_glass_25_CAD7E3_1x400.png'
p112
L3950344369L
sS'..\\__deployed\\images\\jeh-tech\\python\\coloured_bar_graph.png'
p113
L3378136661L
sS'..\\__deployed\\images\\ui-icons_222222_256x240.png'
p114
L3779470207L
sS'..\\__deployed\\fonts\\junction-bold.eot'
p115
L2615998327L
sS'..\\__deployed\\python\\python.html'
p116
L4287691393L
sS'..\\__deployed\\fonts\\leaguespartan-bold.woff'
p117
L2954346416L
sS'..\\__deployed\\images\\jeh-tech\\dot_product_yorick_1.png'
p118
L3804603984L
sS'..\\__deployed\\images\\jeh-tech\\Fotolia_67029924_L_ORIG.jpg'
p119
L3184733182L
sS'..\\__deployed\\electronics.html'
p120
L466086849L
sS'..\\__deployed\\index.html'
p121
L4173785322L
sS'..\\__deployed\\images\\jeh-tech\\expand.png'
p122
L3361828286L
sS'..\\__deployed\\images\\jeh-tech\\warning.png'
p123
L1543352469L
sS'..\\__deployed\\images\\jeh-tech\\array_3d.vsd'
p124
L2525432146L
sS'..\\__deployed\\fonts\\GoudyStM-webfont.woff'
p125
L2522536683L
sS'..\\__deployed\\images\\jeh-tech\\medium_letter.png'
p126
L4244637453L
sS'..\\__deployed\\mathsy_stuff\\math_revision.html'
p127
L2396779275L
sS'..\\__deployed\\ssl.html'
p128
L3678639327L
sS'..\\__deployed\\downloadables\\notebooks\\output_css_3.ipynb'
p129
L3785873345L
sS'..\\__deployed\\images\\jeh-tech\\TrustedRootCA_2.png'
p130
L3414516328L
sS'..\\__deployed\\yorick.html'
p131
L1513976722L
sS'..\\__deployed\\images\\jeh-tech\\icons\\users.png'
p132
L3423979133L
sS'..\\__deployed\\images\\jeh-tech\\icons\\add.png'
p133
L2532743502L
sS'..\\__deployed\\images\\jeh-tech\\YorickRubberIndex.png'
p134
L1643207438L
sS'..\\__deployed\\images\\jeh-tech\\linewidth_html_canv_centre_pixel_thick_line.png'
p135
L3987510883L
sS'..\\__deployed\\downloadables\\notebooks\\mpld3_example.ipynb'
p136
L1401125510L
sS'..\\__deployed\\images\\jeh-tech\\big_letter.vsd'
p137
L1131303738L
s.