(dp0
S'..\\__deployed\\images\\jeh-tech\\excel_select_table_row_headers.PNG'
p1
L361620067L
sS'..\\__deployed\\images\\jeh-tech\\excel_selection_change.png'
p2
L2990428754L
sS'..\\__deployed\\images\\jeh-tech\\SumSeries.png'
p3
L2624971663L
sS'..\\__deployed\\images\\ui-bg_glass_55_fbf9ee_1x400.png'
p4
L1618703785L
sS'..\\__deployed\\google262535b904af2297.html'
p5
L174920219L
sS'..\\__deployed\\images\\jeh-tech\\C_3D_Array.png'
p6
L137577064L
sS'..\\__deployed\\fonts\\junction-regular.eot'
p7
L1853402731L
sS'..\\__deployed\\mail.php'
p8
L3242541719L
sS'..\\__deployed\\images\\jeh-tech\\python\\subplt_shared_x_axis.png'
p9
L2459578870L
sS'..\\__deployed\\python\\pyplot.html'
p10
L4146095781L
sS'..\\__deployed\\c.html'
p11
L1468350225L
sS'..\\__deployed\\python\\ipython_notebooks.html'
p12
L599566160L
sS'..\\__deployed\\images\\jeh-tech\\Prob_Conditional.png'
p13
L2781626536L
sS'..\\__deployed\\mathsy_stuff\\gaussians.html'
p14
L1769564312L
sS'..\\__deployed\\javascript.html'
p15
L3741314082L
sS'..\\__deployed\\images\\jeh-tech\\loading_animation.gif'
p16
L366940378L
sS'..\\__deployed\\python\\psutil.html'
p17
L3174246436L
sS'..\\__deployed\\images\\jeh-tech\\python\\3d_array.png'
p18
L1364181974L
sS'..\\__deployed\\images\\jeh-tech\\icons\\computer.png'
p19
L186961852L
sS'..\\__deployed\\images\\ui-icons_888888_256x240.png'
p20
L3291416662L
sS'..\\__deployed\\images\\jeh-tech\\r_split.vsd'
p21
L1747346541L
sS'..\\__deployed\\images\\jeh-tech\\excel_data_validation_dialog.PNG'
p22
L1123809553L
sS'..\\__deployed\\images\\jeh-tech\\C_3D_Array.vsd'
p23
L3125261148L
sS'..\\__deployed\\images\\jeh-tech\\r_split_1.png'
p24
L1188074896L
sS'..\\__deployed\\images\\jeh-tech\\crypto_plaintext_problem.png'
p25
L3225659089L
sS'..\\__deployed\\images\\jeh-tech\\rotate_vector.png'
p26
L1600297863L
sS'..\\__deployed\\mathsy_stuff\\linear_alg.html'
p27
L1974277867L
sS'..\\__deployed\\images\\jeh-tech\\dot_product_yorick_1.vsd'
p28
L4224960114L
sS'..\\__deployed\\images\\jeh-tech\\solve_linear_equations.vsd'
p29
L2301301009L
sS'..\\__deployed\\images\\jeh-tech\\stats_venn_independent.png'
p30
L2296812629L
sS'..\\__deployed\\images\\jeh-tech\\bayes_bbbr_decision_tree.vsd'
p31
L1801856322L
sS'..\\__deployed\\images\\jeh-tech\\add_vbox_additions_iso.png'
p32
L765522014L
sS'..\\__deployed\\git.html'
p33
L377030150L
sS'..\\__deployed\\images\\jeh-tech\\dot_product_normal.vsd'
p34
L2713906654L
sS'..\\__deployed\\excel.html'
p35
L1163334407L
sS'..\\__deployed\\python\\pysvn.html'
p36
L1377020388L
sS'..\\__deployed\\images\\jeh-tech\\python\\wxBoxSizerBasic.PNG'
p37
L1883283554L
sS'..\\__deployed\\images\\jeh-tech\\excel_data_select_finish_icon.PNG'
p38
L1181791275L
sS'..\\__deployed\\fonts\\junction-bold.woff'
p39
L418864482L
sS'..\\__deployed\\images\\jeh-tech\\resistors_in_par.png'
p40
L3859527192L
sS'..\\__deployed\\images\\ui-icons_454545_256x240.png'
p41
L1192642246L
sS'..\\__deployed\\images\\jeh-tech\\linewidth_html_canv.png'
p42
L315128115L
sS'..\\__deployed\\images\\jeh-tech\\yorick_boardcast_unit_dim.png'
p43
L373831379L
sS'..\\__deployed\\python\\pandas.html'
p44
L2782674242L
sS'..\\__deployed\\images\\jeh-tech\\linewidth_html_canv_centre_pixel.png'
p45
L2030165465L
sS'..\\__deployed\\fonts\\junction-bold.ttf'
p46
L171150028L
sS'..\\__deployed\\images\\jeh-tech\\excel_match_example.PNG'
p47
L3048121418L
sS'..\\__deployed\\images\\jeh-tech\\dot_product_yorick_4.vsd'
p48
L868285560L
sS'..\\__deployed\\images\\ui-bg_highlight-soft_0_9DB3C7_1x100.png'
p49
L1751200253L
sS'..\\__deployed\\images\\jeh-tech\\bayes_rule_flow_chart.PNG'
p50
L3598061755L
sS'..\\__deployed\\python\\argparse.html'
p51
L113415978L
sS'..\\__deployed\\images\\ui-bg_glass_95_fef1ec_1x400.png'
p52
L3500241832L
sS'..\\__deployed\\images\\jeh-tech\\excel_table_row_col_labeled.PNG'
p53
L2401752679L
sS'..\\__deployed\\images\\jeh-tech\\excel_summarise_for_subject_list.PNG'
p54
L636200105L
sS'..\\__deployed\\images\\jeh-tech\\PCB_bkdg.jpg'
p55
L695619354L
sS'..\\__deployed\\images\\ui-icons_cd0a0a_256x240.png'
p56
L2485332548L
sS'..\\__deployed\\svn.html'
p57
L3096705387L
sS'..\\__deployed\\images\\jeh-tech\\excel_click_cell_load_img.png'
p58
L429785749L
sS'..\\__deployed\\images\\jeh-tech\\python\\subplt_independent_x_axis.png'
p59
L2556713178L
sS'..\\__deployed\\images\\jeh-tech\\sampling_from_a_population.vsd'
p60
L213899787L
sS'..\\__deployed\\jeh-monolith.js'
p61
L2895368922L
sS'..\\__deployed\\images\\jeh-tech\\sampling_from_normal_demo_python.png'
p62
L2567223899L
sS'..\\__deployed\\fonts\\leaguespartan-bold.woff2'
p63
L3825300268L
sS'..\\__deployed\\images\\jeh-tech\\bayes_rule_flow_chart.vsd'
p64
L1679557561L
sS'..\\__deployed\\images\\jeh-tech\\stats_law_of_large_numbers.png'
p65
L1534969441L
sS'..\\__deployed\\images\\jeh-tech\\resistors_in_parallel.png'
p66
L789895985L
sS'..\\__deployed\\images\\jeh-tech\\solve_linear_equations_norm.png'
p67
L3177966244L
sS'..\\__deployed\\images\\jeh-tech\\yorick_pseudo_index.jpg'
p68
L3798556151L
sS'..\\__deployed\\images\\jeh-tech\\excel_vlookup.PNG'
p69
L3839618471L
sS'..\\__deployed\\downloadables\\TwistingTheTriad.PDF'
p70
L2222544967L
sS'..\\__deployed\\images\\jeh-tech\\dot_product_yorick_3.vsd'
p71
L4146465518L
sS'..\\__deployed\\images\\jeh-tech\\ManageCertificates.png'
p72
L3033434108L
sS'..\\__deployed\\images\\jeh-tech\\linewidth_html_canv_centre_pixel_thick_line.png'
p73
L3987510883L
sS'..\\__deployed\\vi.html'
p74
L2130184248L
sS'..\\__deployed\\images\\jeh-tech\\icons\\comment (1).png'
p75
L2685515417L
sS'..\\__deployed\\downloadables\\LookUpAMatrix.xlsx'
p76
L407926542L
sS'..\\__deployed\\images\\jeh-tech\\openquote1.gif'
p77
L1189697656L
sS'..\\__deployed\\fonts\\junction-regular.woff'
p78
L546278547L
sS'..\\__deployed\\images\\jeh-tech\\collapse.png'
p79
L3550564855L
sS'..\\__deployed\\images\\jeh-tech\\msgbox_ok.png'
p80
L99401166L
sS'..\\__deployed\\images\\jeh-tech\\sampling_from_normal_demo_python_dist_10000.png'
p81
L3653722211L
sS'..\\__deployed\\images\\ui-bg_glass_75_dadada_1x400.png'
p82
L1941327539L
sS'..\\__deployed\\images\\jeh-tech\\Prob_A_and_B_independent.png'
p83
L1356869459L
sS'..\\__deployed\\images\\ui-icons_2e83ff_256x240.png'
p84
L1447391960L
sS'..\\__deployed\\jeh-monolith.css'
p85
L1812456805L
sS'..\\__deployed\\images\\jeh-tech\\solve_linear_equations_oops.png'
p86
L2753359592L
sS'..\\__deployed\\images\\jeh-tech\\icons\\alert.png'
p87
L3579709017L
sS'..\\__deployed\\images\\jeh-tech\\virtual_box_add_shared_dir.png'
p88
L4042483181L
sS'..\\__deployed\\images\\jeh-tech\\python\\2d_array.png'
p89
L3399284519L
sS'..\\__deployed\\images\\ui-bg_glass_65_ffffff_1x400.png'
p90
L3786289852L
sS'..\\__deployed\\fonts\\GoudyStM-webfont.eot'
p91
L1905039233L
sS'..\\__deployed\\downloadables\\CS310GeneticAlgsProject.pdf'
p92
L3762612930L
sS'..\\__deployed\\images\\jeh-tech\\Prob_A_and_B.vsd'
p93
L3537225410L
sS'..\\__deployed\\html_canvas.html'
p94
L1011277242L
sS'..\\__deployed\\fonts\\leaguespartan-bold.svg'
p95
L3450498539L
sS'..\\__deployed\\contact.html'
p96
L3963105838L
sS'..\\__deployed\\images\\jeh-tech\\dot_product_yorick_4.png'
p97
L3100869254L
sS'..\\__deployed\\images\\jeh-tech\\solve_linear_equations_oopsvsd.vsd'
p98
L871343761L
sS'..\\__deployed\\fonts\\leaguespartan-bold.eot'
p99
L3468735793L
sS'..\\__deployed\\images\\jeh-tech\\small_letter.png'
p100
L1976565072L
sS'..\\__deployed\\images\\jeh-tech\\python\\pandas_landreg.png'
p101
L490140588L
sS'..\\__deployed\\images\\jeh-tech\\python\\wxBoxSizerProportionsVerticallyWithoutExpandFlag.PNG'
p102
L1750511082L
sS'..\\__deployed\\images\\jeh-tech\\voltage_divider.png'
p103
L3692898269L
sS'..\\__deployed\\mvc.html'
p104
L1985517426L
sS'..\\__deployed\\fonts\\junction-regular.ttf'
p105
L2027175246L
sS'..\\__deployed\\python\\numpy.html'
p106
L3527410159L
sS'..\\__deployed\\mysql.html'
p107
L1248245869L
sS'..\\__deployed\\fonts\\leaguespartan-bold.ttf'
p108
L117576886L
sS'..\\__deployed\\images\\jeh-tech\\solve_linear_equations.png'
p109
L2449082019L
sS'..\\__deployed\\images\\jeh-tech\\excel_load_vba_window.png'
p110
L3737537119L
sS'..\\__deployed\\images\\jeh-tech\\conventional_current.png'
p111
L867764297L
sS'..\\__deployed\\images\\jeh-tech\\solve_linear_equations_norm.vsd'
p112
L2068162402L
sS'..\\__deployed\\images\\jeh-tech\\poisson_distrib.png'
p113
L12170513L
sS'..\\__deployed\\linux_script.html'
p114
L4231177664L
sS'..\\__deployed\\tcl.html'
p115
L1924245952L
sS'..\\__deployed\\images\\jeh-tech\\poisson_road_fatilities_distrib.png'
p116
L3911207051L
sS'..\\__deployed\\images\\jeh-tech\\dot_product_normal.png'
p117
L2978237173L
sS'..\\__deployed\\python\\wxpython.html'
p118
L135783731L
sS'..\\__deployed\\images\\jeh-tech\\linear_independence_2.png'
p119
L2208876737L
sS'..\\__deployed\\images\\jeh-tech\\3d_vectors_at_right_angles.png'
p120
L3107402110L
sS'..\\__deployed\\images\\jeh-tech\\excel_cell_now_student_dtopdown.PNG'
p121
L4055259327L
sS'..\\__deployed\\images\\jeh-tech\\sampling_from_normal_demo_python_dist.png'
p122
L1606898328L
sS'..\\__deployed\\win_script.html'
p123
L899720730L
sS'..\\__deployed\\images\\jeh-tech\\closequote1.gif'
p124
L800150224L
sS'..\\__deployed\\images\\jeh-tech\\dot_product_yorick_3.png'
p125
L1412312961L
sS'..\\__deployed\\images\\jeh-tech\\dot_product_yorick_2.png'
p126
L3153038181L
sS'..\\__deployed\\tst.html'
p127
L2625627270L
sS'..\\__deployed\\robots.txt'
p128
L1249323247L
sS'..\\__deployed\\images\\jeh-tech\\phasor_animation.gif'
p129
L569159480L
sS'..\\__deployed\\images\\jeh-tech\\excel_data_validation_dialog_completed.PNG'
p130
L1467967067L
sS'..\\__deployed\\images\\jeh-tech\\stats_venn_AandB.vsd'
p131
L2132835633L
sS'..\\__deployed\\images\\jeh-tech\\PCB_bkdg_ORIG.jpg'
p132
L3983032631L
sS'..\\__deployed\\images\\jeh-tech\\msgbox_yesno_cancel.png'
p133
L535961949L
sS'..\\__deployed\\images\\jeh-tech\\python\\btn_sizer_basic2.png'
p134
L1444321019L
sS'..\\__deployed\\images\\jeh-tech\\wheatstone_bridge.png'
p135
L1675069042L
sS'..\\__deployed\\misc.html'
p136
L859525595L
sS'..\\__deployed\\images\\jeh-tech\\icons\\comment.png'
p137
L2685515417L
sS'..\\__deployed\\images\\jeh-tech\\icons\\notepad - Copy.png'
p138
L2978188971L
sS'..\\__deployed\\images\\jeh-tech\\python\\boxsizerspacers.png'
p139
L1556427427L
sS'..\\__deployed\\R.html'
p140
L3678391941L
sS'..\\__deployed\\recaptchalib.php'
p141
L1316414481L
sS'..\\__deployed\\images\\jeh-tech\\single_dim_inner_prod.png'
p142
L2082605890L
sS'..\\__deployed\\images\\jeh-tech\\linear_independence_1.png'
p143
L421541576L
sS'..\\__deployed\\images\\jeh-tech\\current_divider.png'
p144
L2822002574L
sS'..\\__deployed\\images\\jeh-tech\\icons\\notepad.png'
p145
L1373989924L
sS'..\\__deployed\\xml.html'
p146
L2834405952L
sS'..\\__deployed\\images\\jeh-tech\\python\\pysvn.png'
p147
L4080846821L
sS'..\\__deployed\\images\\jeh-tech\\python\\pysvn.uxf'
p148
L850931379L
sS'..\\__deployed\\images\\jeh-tech\\big_letter.png'
p149
L3182695786L
sS'..\\__deployed\\images\\jeh-tech\\excel_load_vba_worksheet_events.png'
p150
L414879384L
sS'..\\__deployed\\images\\jeh-tech\\icons\\remove.png'
p151
L1255171720L
sS'..\\__deployed\\images\\jeh-tech\\sampling_from_a_population.png'
p152
L1197090426L
sS'..\\__deployed\\images\\jeh-tech\\wheatstone_is_non_linear.png'
p153
L3555603379L
sS'..\\__deployed\\dsp\\deconvolution.html'
p154
L2553424481L
sS'..\\__deployed\\images\\jeh-tech\\SimpleDB_MVC_Problem.png'
p155
L346366740L
sS'..\\__deployed\\images\\jeh-tech\\icons\\tick.png'
p156
L3236721137L
sS'..\\__deployed\\images\\jeh-tech\\icons\\calendar.png'
p157
L2174384455L
sS'..\\__deployed\\images\\jeh-tech\\dot_product_yorick_2.vsd'
p158
L2259183631L
sS'..\\__deployed\\images\\jeh-tech\\Simple_DB_For_MVC_GUI.png'
p159
L1240744382L
sS'..\\__deployed\\images\\ui-bg_flat_75_ffffff_40x100.png'
p160
L4257363120L
sS'..\\__deployed\\images\\ui-bg_flat_0_aaaaaa_40x100.png'
p161
L2869310412L
sS'..\\__deployed\\images\\jeh-tech\\3d_vectors_at_right_angles.vsd'
p162
L4094985773L
sS'..\\__deployed\\images\\jeh-tech\\MVC_From_SmallTalk_Article.png'
p163
L4230329495L
sS'..\\__deployed\\downloadables\\notebooks\\output_css_2.ipynb'
p164
L2922861352L
sS'..\\__deployed\\images\\jeh-tech\\html5_canvas_half_pixel_rect.vsd'
p165
L992334237L
sS'..\\__deployed\\images\\jeh-tech\\TrustedRootCA_1.png'
p166
L2882934051L
sS'..\\__deployed\\images\\jeh-tech\\Prob_A_and_B_double_count.png'
p167
L3366997774L
sS'..\\__deployed\\test.html'
p168
L2352621739L
sS'..\\__deployed\\mathsy_stuff\\stats.html'
p169
L3136640561L
sS'..\\__deployed\\downloadables\\notebooks\\output_css_1.ipynb'
p170
L2104413969L
sS'..\\__deployed\\images\\jeh-tech\\python\\wxBoxSizerProportionsWithoutExpandFlag.PNG'
p171
L3482132533L
sS'..\\__deployed\\images\\jeh-tech\\stats_venn_dependent.png'
p172
L2850045408L
sS'..\\__deployed\\fonts\\GoudyStM-webfont.ttf'
p173
L990476620L
sS'..\\__deployed\\images\\jeh-tech\\python\\btn_sizer_basic1.png'
p174
L3310678208L
sS'..\\__deployed\\images\\jeh-tech\\icons\\alert - Copy.png'
p175
L3656024312L
sS'..\\__deployed\\images\\ui-bg_glass_25_CAD7E3_1x400.png'
p176
L3950344369L
sS'..\\__deployed\\images\\jeh-tech\\Prob_A_and_B_dependent.png'
p177
L2745626359L
sS'..\\__deployed\\images\\jeh-tech\\python\\coloured_bar_graph.png'
p178
L3378136661L
sS'..\\__deployed\\images\\ui-icons_222222_256x240.png'
p179
L3779470207L
sS'..\\__deployed\\fonts\\junction-bold.eot'
p180
L2615998327L
sS'..\\__deployed\\images\\jeh-tech\\install_guest_additions_from_menu.png'
p181
L521207428L
sS'..\\__deployed\\images\\jeh-tech\\YorickRubberIndex.png'
p182
L1643207438L
sS'..\\__deployed\\fonts\\leaguespartan-bold.woff'
p183
L2954346416L
sS'..\\__deployed\\images\\jeh-tech\\dot_product_yorick_1.png'
p184
L3804603984L
sS'..\\__deployed\\images\\jeh-tech\\Fotolia_67029924_L_ORIG.jpg'
p185
L3184733182L
sS'..\\__deployed\\images\\jeh-tech\\python\\boxsizerspacers.vsd'
p186
L498638615L
sS'..\\__deployed\\electronics.html'
p187
L1842334238L
sS'..\\__deployed\\index.html'
p188
L3833382727L
sS'..\\__deployed\\images\\jeh-tech\\expand.png'
p189
L3361828286L
sS'..\\__deployed\\images\\jeh-tech\\yorick_broadcast.png'
p190
L1205122955L
sS'..\\__deployed\\images\\jeh-tech\\warning.png'
p191
L1543352469L
sS'..\\__deployed\\images\\jeh-tech\\linear_independence.vsd'
p192
L3350340040L
sS'..\\__deployed\\images\\jeh-tech\\array_3d.vsd'
p193
L2525432146L
sS'..\\__deployed\\quotes.html'
p194
L3231143733L
sS'..\\__deployed\\images\\jeh-tech\\bayes_bbbr_decision_tree.png'
p195
L2807266243L
sS'..\\__deployed\\images\\jeh-tech\\medium_letter.png'
p196
L4244637453L
sS'..\\__deployed\\mathsy_stuff\\math_revision.html'
p197
L187163498L
sS'..\\__deployed\\images\\jeh-tech\\sampling_from_normal_demo_python_dist_50.png'
p198
L315279911L
sS'..\\__deployed\\ssl.html'
p199
L4096936684L
sS'..\\__deployed\\images\\jeh-tech\\excel_add_data_validation_steps.PNG'
p200
L3810558145L
sS'..\\__deployed\\python\\python.html'
p201
L666248159L
sS'..\\__deployed\\images\\jeh-tech\\excel_data_select_icon.PNG'
p202
L798419141L
sS'..\\__deployed\\downloadables\\notebooks\\output_css_3.ipynb'
p203
L3785873345L
sS'..\\__deployed\\images\\jeh-tech\\binomial_distrib_example.png'
p204
L1420567837L
sS'..\\__deployed\\images\\jeh-tech\\sampling_from_normal_demo_python_dist_1000.png'
p205
L1256840207L
sS'..\\__deployed\\images\\jeh-tech\\TrustedRootCA_2.png'
p206
L3414516328L
sS'..\\__deployed\\images\\jeh-tech\\msgbox_yesno.png'
p207
L3168219944L
sS'..\\__deployed\\yorick.html'
p208
L1272879098L
sS'..\\__deployed\\images\\jeh-tech\\icons\\users.png'
p209
L3423979133L
sS'..\\__deployed\\images\\jeh-tech\\icons\\add.png'
p210
L2532743502L
sS'..\\__deployed\\images\\jeh-tech\\msgbox_ok_cancel.png'
p211
L4249278424L
sS'..\\__deployed\\images\\jeh-tech\\single_dim_inner_prod.vsd'
p212
L101541400L
sS'..\\__deployed\\images\\jeh-tech\\python\\wxBoxSizerProportionsWithExpandFlag.PNG'
p213
L1434919532L
sS'..\\__deployed\\fonts\\GoudyStM-webfont.woff'
p214
L2522536683L
sS'..\\__deployed\\downloadables\\notebooks\\mpld3_example.ipynb'
p215
L1401125510L
sS'..\\__deployed\\images\\jeh-tech\\big_letter.vsd'
p216
L1131303738L
sS'..\\__deployed\\images\\jeh-tech\\excel_table_test_score_want_list.PNG'
p217
L1173910598L
s.