(dp0
S'..\\__deployed\\images\\jeh-tech\\SumSeries.png'
p1
L2624971663L
sS'..\\__deployed\\images\\ui-bg_glass_55_fbf9ee_1x400.png'
p2
L1618703785L
sS'..\\__deployed\\google262535b904af2297.html'
p3
L174920219L
sS'..\\__deployed\\mathsy_stuff\\linear_alg.html'
p4
L4046561068L
sS'..\\__deployed\\fonts\\junction-regular.eot'
p5
L1853402731L
sS'..\\__deployed\\images\\jeh-tech\\resistors_in_par.png'
p6
L3859527192L
sS'..\\__deployed\\images\\jeh-tech\\python\\subplt_shared_x_axis.png'
p7
L2459578870L
sS'..\\__deployed\\python\\pyplot.html'
p8
L3104122405L
sS'..\\__deployed\\python\\ipython_notebooks.html'
p9
L20440656L
sS'..\\__deployed\\mathsy_stuff\\gaussians.html'
p10
L868931566L
sS'..\\__deployed\\javascript.html'
p11
L3052215461L
sS'..\\__deployed\\R - Copy.html'
p12
L2284155333L
sS'..\\__deployed\\images\\jeh-tech\\python\\3d_array.png'
p13
L1364181974L
sS'..\\__deployed\\images\\jeh-tech\\icons\\computer.png'
p14
L186961852L
sS'..\\__deployed\\images\\ui-icons_888888_256x240.png'
p15
L3291416662L
sS'..\\__deployed\\images\\jeh-tech\\python\\pandas_landreg.png'
p16
L490140588L
sS'..\\__deployed\\images\\jeh-tech\\crypto_plaintext_problem.png'
p17
L3225659089L
sS'..\\__deployed\\images\\jeh-tech\\rotate_vector.png'
p18
L1600297863L
sS'..\\__deployed\\images\\jeh-tech\\dot_product_yorick_1.vsd'
p19
L4224960114L
sS'..\\__deployed\\images\\jeh-tech\\solve_linear_equations.vsd'
p20
L2301301009L
sS'..\\__deployed\\git.html'
p21
L3682367785L
sS'..\\__deployed\\images\\jeh-tech\\dot_product_normal.vsd'
p22
L2713906654L
sS'..\\__deployed\\fonts\\junction-bold.woff'
p23
L418864482L
sS'..\\__deployed\\images\\ui-icons_454545_256x240.png'
p24
L1192642246L
sS'..\\__deployed\\images\\jeh-tech\\linewidth_html_canv.png'
p25
L315128115L
sS'..\\__deployed\\images\\jeh-tech\\yorick_boardcast_unit_dim.png'
p26
L373831379L
sS'..\\__deployed\\python\\pandas.html'
p27
L2154454325L
sS'..\\__deployed\\images\\jeh-tech\\linewidth_html_canv_centre_pixel.png'
p28
L2030165465L
sS'..\\__deployed\\fonts\\junction-bold.ttf'
p29
L171150028L
sS'..\\__deployed\\images\\jeh-tech\\dot_product_yorick_4.vsd'
p30
L868285560L
sS'..\\__deployed\\images\\ui-bg_highlight-soft_0_9DB3C7_1x100.png'
p31
L1751200253L
sS'..\\__deployed\\downloadables\\TwistingTheTriad.PDF'
p32
L2222544967L
sS'..\\__deployed\\images\\ui-bg_glass_95_fef1ec_1x400.png'
p33
L3500241832L
sS'..\\__deployed\\images\\jeh-tech\\PCB_bkdg.jpg'
p34
L695619354L
sS'..\\__deployed\\images\\ui-icons_cd0a0a_256x240.png'
p35
L2485332548L
sS'..\\__deployed\\svn.html'
p36
L2541564653L
sS'..\\__deployed\\images\\jeh-tech\\python\\subplt_independent_x_axis.png'
p37
L2556713178L
sS'..\\__deployed\\jeh-monolith.js'
p38
L792459958L
sS'..\\__deployed\\fonts\\leaguespartan-bold.woff2'
p39
L3825300268L
sS'..\\__deployed\\images\\jeh-tech\\SimpleDB_MVC_Problem.png'
p40
L346366740L
sS'..\\__deployed\\images\\jeh-tech\\resistors_in_parallel.png'
p41
L789895985L
sS'..\\__deployed\\images\\jeh-tech\\solve_linear_equations_norm.png'
p42
L3177966244L
sS'..\\__deployed\\images\\jeh-tech\\yorick_pseudo_index.jpg'
p43
L3798556151L
sS'..\\__deployed\\images\\jeh-tech\\dot_product_yorick_3.vsd'
p44
L4146465518L
sS'..\\__deployed\\images\\jeh-tech\\ManageCertificates.png'
p45
L3033434108L
sS'..\\__deployed\\vi.html'
p46
L3069606747L
sS'..\\__deployed\\images\\jeh-tech\\icons\\comment (1).png'
p47
L2685515417L
sS'..\\__deployed\\images\\jeh-tech\\openquote1.gif'
p48
L1189697656L
sS'..\\__deployed\\fonts\\junction-regular.woff'
p49
L546278547L
sS'..\\__deployed\\images\\jeh-tech\\collapse.png'
p50
L3550564855L
sS'..\\__deployed\\images\\ui-bg_glass_75_dadada_1x400.png'
p51
L1941327539L
sS'..\\__deployed\\images\\ui-icons_2e83ff_256x240.png'
p52
L1447391960L
sS'..\\__deployed\\jeh-monolith.css'
p53
L3097092956L
sS'..\\__deployed\\images\\jeh-tech\\solve_linear_equations_oops.png'
p54
L2753359592L
sS'..\\__deployed\\images\\jeh-tech\\icons\\alert.png'
p55
L3579709017L
sS'..\\__deployed\\images\\jeh-tech\\python\\2d_array.png'
p56
L3399284519L
sS'..\\__deployed\\images\\ui-bg_glass_65_ffffff_1x400.png'
p57
L3786289852L
sS'..\\__deployed\\fonts\\GoudyStM-webfont.eot'
p58
L1905039233L
sS'..\\__deployed\\downloadables\\CS310GeneticAlgsProject.pdf'
p59
L3762612930L
sS'..\\__deployed\\html_canvas.html'
p60
L1516261612L
sS'..\\__deployed\\images\\jeh-tech\\loading_animation.gif'
p61
L366940378L
sS'..\\__deployed\\fonts\\leaguespartan-bold.svg'
p62
L3450498539L
sS'..\\__deployed\\images\\jeh-tech\\wheatstone_is_non_linear.png'
p63
L3555603379L
sS'..\\__deployed\\contact.html'
p64
L1148672442L
sS'..\\__deployed\\images\\jeh-tech\\dot_product_yorick_4.png'
p65
L3100869254L
sS'..\\__deployed\\images\\jeh-tech\\solve_linear_equations_oopsvsd.vsd'
p66
L871343761L
sS'..\\__deployed\\fonts\\leaguespartan-bold.eot'
p67
L3468735793L
sS'..\\__deployed\\images\\jeh-tech\\small_letter.png'
p68
L1976565072L
sS'..\\__deployed\\images\\jeh-tech\\voltage_divider.png'
p69
L3692898269L
sS'..\\__deployed\\mvc.html'
p70
L1051789988L
sS'..\\__deployed\\fonts\\junction-regular.ttf'
p71
L2027175246L
sS'..\\__deployed\\python\\numpy.html'
p72
L3161868248L
sS'..\\__deployed\\mysql.html'
p73
L1744710559L
sS'..\\__deployed\\fonts\\leaguespartan-bold.ttf'
p74
L117576886L
sS'..\\__deployed\\images\\jeh-tech\\solve_linear_equations.png'
p75
L2449082019L
sS'..\\__deployed\\images\\jeh-tech\\conventional_current.png'
p76
L867764297L
sS'..\\__deployed\\images\\jeh-tech\\solve_linear_equations_norm.vsd'
p77
L2068162402L
sS'..\\__deployed\\images\\jeh-tech\\yorick_broadcast.png'
p78
L1205122955L
sS'..\\__deployed\\linux_script.html'
p79
L1495587262L
sS'..\\__deployed\\tcl.html'
p80
L196924652L
sS'..\\__deployed\\images\\jeh-tech\\dot_product_normal.png'
p81
L2978237173L
sS'..\\__deployed\\python\\wxpython.html'
p82
L3278762847L
sS'..\\__deployed\\images\\jeh-tech\\3d_vectors_at_right_angles.png'
p83
L3107402110L
sS'..\\__deployed\\win_script.html'
p84
L1221007692L
sS'..\\__deployed\\images\\jeh-tech\\closequote1.gif'
p85
L800150224L
sS'..\\__deployed\\images\\jeh-tech\\dot_product_yorick_3.png'
p86
L1412312961L
sS'..\\__deployed\\images\\jeh-tech\\dot_product_yorick_2.png'
p87
L3153038181L
sS'..\\__deployed\\tst.html'
p88
L2625627270L
sS'..\\__deployed\\robots.txt'
p89
L1249323247L
sS'..\\__deployed\\images\\jeh-tech\\phasor_animation.gif'
p90
L569159480L
sS'..\\__deployed\\images\\jeh-tech\\linear_independence_1.png'
p91
L421541576L
sS'..\\__deployed\\images\\jeh-tech\\PCB_bkdg_ORIG.jpg'
p92
L3983032631L
sS'..\\__deployed\\images\\jeh-tech\\python\\btn_sizer_basic2.png'
p93
L1444321019L
sS'..\\__deployed\\images\\jeh-tech\\wheatstone_bridge.png'
p94
L1675069042L
sS'..\\__deployed\\misc.html'
p95
L930838687L
sS'..\\__deployed\\images\\jeh-tech\\icons\\comment.png'
p96
L2685515417L
sS'..\\__deployed\\images\\jeh-tech\\icons\\notepad - Copy.png'
p97
L2978188971L
sS'..\\__deployed\\R.html'
p98
L2284155333L
sS'..\\__deployed\\images\\jeh-tech\\current_divider.png'
p99
L2822002574L
sS'..\\__deployed\\images\\jeh-tech\\icons\\notepad.png'
p100
L1373989924L
sS'..\\__deployed\\xml.html'
p101
L2981367154L
sS'..\\__deployed\\images\\jeh-tech\\big_letter.png'
p102
L3182695786L
sS'..\\__deployed\\images\\jeh-tech\\icons\\remove.png'
p103
L1255171720L
sS'..\\__deployed\\reCaptchaSecret.txt'
p104
L43519141L
sS'..\\__deployed\\dsp\\deconvolution.html'
p105
L2546571703L
sS'..\\__deployed\\images\\jeh-tech\\icons\\tick.png'
p106
L3236721137L
sS'..\\__deployed\\images\\jeh-tech\\icons\\calendar.png'
p107
L2174384455L
sS'..\\__deployed\\images\\jeh-tech\\dot_product_yorick_2.vsd'
p108
L2259183631L
sS'..\\__deployed\\images\\jeh-tech\\Simple_DB_For_MVC_GUI.png'
p109
L1240744382L
sS'..\\__deployed\\images\\ui-bg_flat_75_ffffff_40x100.png'
p110
L4257363120L
sS'..\\__deployed\\images\\ui-bg_flat_0_aaaaaa_40x100.png'
p111
L2869310412L
sS'..\\__deployed\\images\\jeh-tech\\3d_vectors_at_right_angles.vsd'
p112
L4094985773L
sS'..\\__deployed\\images\\jeh-tech\\MVC_From_SmallTalk_Article.png'
p113
L4230329495L
sS'..\\__deployed\\downloadables\\notebooks\\output_css_2.ipynb'
p114
L2922861352L
sS'..\\__deployed\\images\\jeh-tech\\html5_canvas_half_pixel_rect.vsd'
p115
L992334237L
sS'..\\__deployed\\images\\jeh-tech\\TrustedRootCA_1.png'
p116
L2882934051L
sS'..\\__deployed\\test.html'
p117
L3018103758L
sS'..\\__deployed\\downloadables\\notebooks\\output_css_1.ipynb'
p118
L2104413969L
sS'..\\__deployed\\fonts\\GoudyStM-webfont.ttf'
p119
L990476620L
sS'..\\__deployed\\images\\jeh-tech\\python\\btn_sizer_basic1.png'
p120
L3310678208L
sS'..\\__deployed\\images\\jeh-tech\\icons\\alert - Copy.png'
p121
L3656024312L
sS'..\\__deployed\\images\\ui-bg_glass_25_CAD7E3_1x400.png'
p122
L3950344369L
sS'..\\__deployed\\images\\jeh-tech\\python\\coloured_bar_graph.png'
p123
L3378136661L
sS'..\\__deployed\\images\\ui-icons_222222_256x240.png'
p124
L3779470207L
sS'..\\__deployed\\fonts\\junction-bold.eot'
p125
L2615998327L
sS'..\\__deployed\\python\\python.html'
p126
L3600901053L
sS'..\\__deployed\\fonts\\leaguespartan-bold.woff'
p127
L2954346416L
sS'..\\__deployed\\images\\jeh-tech\\dot_product_yorick_1.png'
p128
L3804603984L
sS'..\\__deployed\\images\\jeh-tech\\Fotolia_67029924_L_ORIG.jpg'
p129
L3184733182L
sS'..\\__deployed\\electronics.html'
p130
L3858513232L
sS'..\\__deployed\\index.html'
p131
L867056249L
sS'..\\__deployed\\images\\jeh-tech\\expand.png'
p132
L3361828286L
sS'..\\__deployed\\images\\jeh-tech\\warning.png'
p133
L1543352469L
sS'..\\__deployed\\images\\jeh-tech\\linear_independence.vsd'
p134
L3350340040L
sS'..\\__deployed\\images\\jeh-tech\\array_3d.vsd'
p135
L2525432146L
sS'..\\__deployed\\images\\jeh-tech\\linewidth_html_canv_centre_pixel_thick_line.png'
p136
L3987510883L
sS'..\\__deployed\\images\\jeh-tech\\medium_letter.png'
p137
L4244637453L
sS'..\\__deployed\\mathsy_stuff\\math_revision.html'
p138
L332987045L
sS'..\\__deployed\\ssl.html'
p139
L401456655L
sS'..\\__deployed\\downloadables\\notebooks\\output_css_3.ipynb'
p140
L3785873345L
sS'..\\__deployed\\images\\jeh-tech\\linear_independence_2.png'
p141
L2208876737L
sS'..\\__deployed\\images\\jeh-tech\\TrustedRootCA_2.png'
p142
L3414516328L
sS'..\\__deployed\\yorick.html'
p143
L1707525394L
sS'..\\__deployed\\images\\jeh-tech\\icons\\users.png'
p144
L3423979133L
sS'..\\__deployed\\images\\jeh-tech\\icons\\add.png'
p145
L2532743502L
sS'..\\__deployed\\images\\jeh-tech\\YorickRubberIndex.png'
p146
L1643207438L
sS'..\\__deployed\\fonts\\GoudyStM-webfont.woff'
p147
L2522536683L
sS'..\\__deployed\\downloadables\\notebooks\\mpld3_example.ipynb'
p148
L1401125510L
sS'..\\__deployed\\images\\jeh-tech\\big_letter.vsd'
p149
L1131303738L
s.