(dp0
S'..\\__deployed\\images\\jeh-tech\\SumSeries.png'
p1
L2624971663L
sS'..\\__deployed\\images\\ui-bg_glass_55_fbf9ee_1x400.png'
p2
L1618703785L
sS'..\\__deployed\\google262535b904af2297.html'
p3
L174920219L
sS'..\\__deployed\\images\\jeh-tech\\C_3D_Array.png'
p4
L137577064L
sS'..\\__deployed\\fonts\\junction-regular.eot'
p5
L1853402731L
sS'..\\__deployed\\images\\jeh-tech\\resistors_in_par.png'
p6
L3859527192L
sS'..\\__deployed\\images\\jeh-tech\\python\\subplt_shared_x_axis.png'
p7
L2459578870L
sS'..\\__deployed\\python\\pyplot.html'
p8
L616462062L
sS'..\\__deployed\\c.html'
p9
L3846616200L
sS'..\\__deployed\\python\\ipython_notebooks.html'
p10
L2886272434L
sS'..\\__deployed\\mathsy_stuff\\gaussians.html'
p11
L333838145L
sS'..\\__deployed\\javascript.html'
p12
L1953446765L
sS'..\\__deployed\\images\\jeh-tech\\loading_animation.gif'
p13
L366940378L
sS'..\\__deployed\\images\\jeh-tech\\python\\3d_array.png'
p14
L1364181974L
sS'..\\__deployed\\images\\jeh-tech\\icons\\computer.png'
p15
L186961852L
sS'..\\__deployed\\images\\ui-icons_888888_256x240.png'
p16
L3291416662L
sS'..\\__deployed\\images\\jeh-tech\\r_split.vsd'
p17
L1747346541L
sS'..\\__deployed\\images\\jeh-tech\\C_3D_Array.vsd'
p18
L3125261148L
sS'..\\__deployed\\images\\jeh-tech\\r_split_1.png'
p19
L1188074896L
sS'..\\__deployed\\images\\jeh-tech\\crypto_plaintext_problem.png'
p20
L3225659089L
sS'..\\__deployed\\images\\jeh-tech\\rotate_vector.png'
p21
L1600297863L
sS'..\\__deployed\\mathsy_stuff\\linear_alg.html'
p22
L345286036L
sS'..\\__deployed\\images\\jeh-tech\\dot_product_yorick_1.vsd'
p23
L4224960114L
sS'..\\__deployed\\images\\jeh-tech\\solve_linear_equations.vsd'
p24
L2301301009L
sS'..\\__deployed\\git.html'
p25
L3809449969L
sS'..\\__deployed\\images\\jeh-tech\\dot_product_normal.vsd'
p26
L2713906654L
sS'..\\__deployed\\images\\jeh-tech\\python\\wxBoxSizerBasic.PNG'
p27
L1883283554L
sS'..\\__deployed\\fonts\\junction-bold.woff'
p28
L418864482L
sS'..\\__deployed\\images\\ui-icons_454545_256x240.png'
p29
L1192642246L
sS'..\\__deployed\\images\\jeh-tech\\linewidth_html_canv.png'
p30
L315128115L
sS'..\\__deployed\\images\\jeh-tech\\yorick_boardcast_unit_dim.png'
p31
L373831379L
sS'..\\__deployed\\python\\pandas.html'
p32
L2425211883L
sS'..\\__deployed\\images\\jeh-tech\\linewidth_html_canv_centre_pixel.png'
p33
L2030165465L
sS'..\\__deployed\\fonts\\junction-bold.ttf'
p34
L171150028L
sS'..\\__deployed\\images\\jeh-tech\\dot_product_yorick_4.vsd'
p35
L868285560L
sS'..\\__deployed\\images\\ui-bg_highlight-soft_0_9DB3C7_1x100.png'
p36
L1751200253L
sS'..\\__deployed\\downloadables\\TwistingTheTriad.PDF'
p37
L2222544967L
sS'..\\__deployed\\images\\ui-bg_glass_95_fef1ec_1x400.png'
p38
L3500241832L
sS'..\\__deployed\\images\\jeh-tech\\PCB_bkdg.jpg'
p39
L695619354L
sS'..\\__deployed\\images\\ui-icons_cd0a0a_256x240.png'
p40
L2485332548L
sS'..\\__deployed\\svn.html'
p41
L3021075846L
sS'..\\__deployed\\images\\jeh-tech\\python\\subplt_independent_x_axis.png'
p42
L2556713178L
sS'..\\__deployed\\jeh-monolith.js'
p43
L3959336583L
sS'..\\__deployed\\fonts\\leaguespartan-bold.woff2'
p44
L3825300268L
sS'..\\__deployed\\images\\jeh-tech\\SimpleDB_MVC_Problem.png'
p45
L346366740L
sS'..\\__deployed\\images\\jeh-tech\\resistors_in_parallel.png'
p46
L789895985L
sS'..\\__deployed\\images\\jeh-tech\\solve_linear_equations_norm.png'
p47
L3177966244L
sS'..\\__deployed\\images\\jeh-tech\\yorick_pseudo_index.jpg'
p48
L3798556151L
sS'..\\__deployed\\images\\jeh-tech\\dot_product_yorick_3.vsd'
p49
L4146465518L
sS'..\\__deployed\\images\\jeh-tech\\ManageCertificates.png'
p50
L3033434108L
sS'..\\__deployed\\vi.html'
p51
L1125292579L
sS'..\\__deployed\\images\\jeh-tech\\icons\\comment (1).png'
p52
L2685515417L
sS'..\\__deployed\\images\\jeh-tech\\openquote1.gif'
p53
L1189697656L
sS'..\\__deployed\\fonts\\junction-regular.woff'
p54
L546278547L
sS'..\\__deployed\\images\\jeh-tech\\collapse.png'
p55
L3550564855L
sS'..\\__deployed\\images\\ui-bg_glass_75_dadada_1x400.png'
p56
L1941327539L
sS'..\\__deployed\\images\\ui-icons_2e83ff_256x240.png'
p57
L1447391960L
sS'..\\__deployed\\jeh-monolith.css'
p58
L1812456805L
sS'..\\__deployed\\images\\jeh-tech\\solve_linear_equations_oops.png'
p59
L2753359592L
sS'..\\__deployed\\images\\jeh-tech\\icons\\alert.png'
p60
L3579709017L
sS'..\\__deployed\\images\\jeh-tech\\python\\2d_array.png'
p61
L3399284519L
sS'..\\__deployed\\images\\ui-bg_glass_65_ffffff_1x400.png'
p62
L3786289852L
sS'..\\__deployed\\fonts\\GoudyStM-webfont.eot'
p63
L1905039233L
sS'..\\__deployed\\downloadables\\CS310GeneticAlgsProject.pdf'
p64
L3762612930L
sS'..\\__deployed\\html_canvas.html'
p65
L1127968692L
sS'..\\__deployed\\fonts\\leaguespartan-bold.svg'
p66
L3450498539L
sS'..\\__deployed\\images\\jeh-tech\\wheatstone_is_non_linear.png'
p67
L3555603379L
sS'..\\__deployed\\contact.html'
p68
L516585602L
sS'..\\__deployed\\images\\jeh-tech\\dot_product_yorick_4.png'
p69
L3100869254L
sS'..\\__deployed\\images\\jeh-tech\\solve_linear_equations_oopsvsd.vsd'
p70
L871343761L
sS'..\\__deployed\\fonts\\leaguespartan-bold.eot'
p71
L3468735793L
sS'..\\__deployed\\images\\jeh-tech\\small_letter.png'
p72
L1976565072L
sS'..\\__deployed\\images\\jeh-tech\\python\\wxBoxSizerProportionsVerticallyWithoutExpandFlag.PNG'
p73
L1750511082L
sS'..\\__deployed\\images\\jeh-tech\\voltage_divider.png'
p74
L3692898269L
sS'..\\__deployed\\mvc.html'
p75
L136259948L
sS'..\\__deployed\\fonts\\junction-regular.ttf'
p76
L2027175246L
sS'..\\__deployed\\python\\numpy.html'
p77
L587698328L
sS'..\\__deployed\\mysql.html'
p78
L2609728103L
sS'..\\__deployed\\fonts\\leaguespartan-bold.ttf'
p79
L117576886L
sS'..\\__deployed\\images\\jeh-tech\\solve_linear_equations.png'
p80
L2449082019L
sS'..\\__deployed\\images\\jeh-tech\\conventional_current.png'
p81
L867764297L
sS'..\\__deployed\\images\\jeh-tech\\solve_linear_equations_norm.vsd'
p82
L2068162402L
sS'..\\__deployed\\images\\jeh-tech\\yorick_broadcast.png'
p83
L1205122955L
sS'..\\__deployed\\linux_script.html'
p84
L1549923157L
sS'..\\__deployed\\tcl.html'
p85
L1294922676L
sS'..\\__deployed\\images\\jeh-tech\\python\\pandas_landreg.png'
p86
L490140588L
sS'..\\__deployed\\images\\jeh-tech\\dot_product_normal.png'
p87
L2978237173L
sS'..\\__deployed\\python\\wxpython.html'
p88
L2800562593L
sS'..\\__deployed\\images\\jeh-tech\\3d_vectors_at_right_angles.png'
p89
L3107402110L
sS'..\\__deployed\\win_script.html'
p90
L1419196436L
sS'..\\__deployed\\images\\jeh-tech\\closequote1.gif'
p91
L800150224L
sS'..\\__deployed\\images\\jeh-tech\\dot_product_yorick_3.png'
p92
L1412312961L
sS'..\\__deployed\\images\\jeh-tech\\dot_product_yorick_2.png'
p93
L3153038181L
sS'..\\__deployed\\tst.html'
p94
L2625627270L
sS'..\\__deployed\\robots.txt'
p95
L1249323247L
sS'..\\__deployed\\images\\jeh-tech\\phasor_animation.gif'
p96
L569159480L
sS'..\\__deployed\\images\\jeh-tech\\linear_independence_1.png'
p97
L421541576L
sS'..\\__deployed\\images\\jeh-tech\\PCB_bkdg_ORIG.jpg'
p98
L3983032631L
sS'..\\__deployed\\images\\jeh-tech\\python\\btn_sizer_basic2.png'
p99
L1444321019L
sS'..\\__deployed\\images\\jeh-tech\\wheatstone_bridge.png'
p100
L1675069042L
sS'..\\__deployed\\misc.html'
p101
L2724071499L
sS'..\\__deployed\\images\\jeh-tech\\icons\\comment.png'
p102
L2685515417L
sS'..\\__deployed\\images\\jeh-tech\\icons\\notepad - Copy.png'
p103
L2978188971L
sS'..\\__deployed\\images\\jeh-tech\\python\\boxsizerspacers.png'
p104
L1556427427L
sS'..\\__deployed\\R.html'
p105
L3659817202L
sS'..\\__deployed\\images\\jeh-tech\\current_divider.png'
p106
L2822002574L
sS'..\\__deployed\\images\\jeh-tech\\icons\\notepad.png'
p107
L1373989924L
sS'..\\__deployed\\xml.html'
p108
L831138874L
sS'..\\__deployed\\images\\jeh-tech\\big_letter.png'
p109
L3182695786L
sS'..\\__deployed\\images\\jeh-tech\\icons\\remove.png'
p110
L1255171720L
sS'..\\__deployed\\reCaptchaSecret.txt'
p111
L43519141L
sS'..\\__deployed\\dsp\\deconvolution.html'
p112
L3626940682L
sS'..\\__deployed\\images\\jeh-tech\\icons\\tick.png'
p113
L3236721137L
sS'..\\__deployed\\images\\jeh-tech\\icons\\calendar.png'
p114
L2174384455L
sS'..\\__deployed\\images\\jeh-tech\\dot_product_yorick_2.vsd'
p115
L2259183631L
sS'..\\__deployed\\images\\jeh-tech\\Simple_DB_For_MVC_GUI.png'
p116
L1240744382L
sS'..\\__deployed\\images\\ui-bg_flat_75_ffffff_40x100.png'
p117
L4257363120L
sS'..\\__deployed\\images\\ui-bg_flat_0_aaaaaa_40x100.png'
p118
L2869310412L
sS'..\\__deployed\\images\\jeh-tech\\3d_vectors_at_right_angles.vsd'
p119
L4094985773L
sS'..\\__deployed\\images\\jeh-tech\\MVC_From_SmallTalk_Article.png'
p120
L4230329495L
sS'..\\__deployed\\downloadables\\notebooks\\output_css_2.ipynb'
p121
L2922861352L
sS'..\\__deployed\\images\\jeh-tech\\html5_canvas_half_pixel_rect.vsd'
p122
L992334237L
sS'..\\__deployed\\images\\jeh-tech\\TrustedRootCA_1.png'
p123
L2882934051L
sS'..\\__deployed\\test.html'
p124
L1429650070L
sS'..\\__deployed\\downloadables\\notebooks\\output_css_1.ipynb'
p125
L2104413969L
sS'..\\__deployed\\images\\jeh-tech\\python\\wxBoxSizerProportionsWithoutExpandFlag.PNG'
p126
L3482132533L
sS'..\\__deployed\\fonts\\GoudyStM-webfont.ttf'
p127
L990476620L
sS'..\\__deployed\\images\\jeh-tech\\python\\btn_sizer_basic1.png'
p128
L3310678208L
sS'..\\__deployed\\images\\jeh-tech\\icons\\alert - Copy.png'
p129
L3656024312L
sS'..\\__deployed\\images\\ui-bg_glass_25_CAD7E3_1x400.png'
p130
L3950344369L
sS'..\\__deployed\\images\\jeh-tech\\python\\coloured_bar_graph.png'
p131
L3378136661L
sS'..\\__deployed\\images\\ui-icons_222222_256x240.png'
p132
L3779470207L
sS'..\\__deployed\\fonts\\junction-bold.eot'
p133
L2615998327L
sS'..\\__deployed\\images\\jeh-tech\\YorickRubberIndex.png'
p134
L1643207438L
sS'..\\__deployed\\fonts\\leaguespartan-bold.woff'
p135
L2954346416L
sS'..\\__deployed\\images\\jeh-tech\\dot_product_yorick_1.png'
p136
L3804603984L
sS'..\\__deployed\\images\\jeh-tech\\Fotolia_67029924_L_ORIG.jpg'
p137
L3184733182L
sS'..\\__deployed\\images\\jeh-tech\\python\\boxsizerspacers.vsd'
p138
L498638615L
sS'..\\__deployed\\electronics.html'
p139
L3673578520L
sS'..\\__deployed\\index.html'
p140
L1281382721L
sS'..\\__deployed\\images\\jeh-tech\\expand.png'
p141
L3361828286L
sS'..\\__deployed\\images\\jeh-tech\\warning.png'
p142
L1543352469L
sS'..\\__deployed\\images\\jeh-tech\\linear_independence.vsd'
p143
L3350340040L
sS'..\\__deployed\\images\\jeh-tech\\array_3d.vsd'
p144
L2525432146L
sS'..\\__deployed\\images\\jeh-tech\\linewidth_html_canv_centre_pixel_thick_line.png'
p145
L3987510883L
sS'..\\__deployed\\images\\jeh-tech\\medium_letter.png'
p146
L4244637453L
sS'..\\__deployed\\mathsy_stuff\\math_revision.html'
p147
L3515226631L
sS'..\\__deployed\\ssl.html'
p148
L894950615L
sS'..\\__deployed\\python\\python.html'
p149
L1703748944L
sS'..\\__deployed\\downloadables\\notebooks\\output_css_3.ipynb'
p150
L3785873345L
sS'..\\__deployed\\images\\jeh-tech\\linear_independence_2.png'
p151
L2208876737L
sS'..\\__deployed\\images\\jeh-tech\\TrustedRootCA_2.png'
p152
L3414516328L
sS'..\\__deployed\\images\\jeh-tech\\single_dim_inner_prod.png'
p153
L2082605890L
sS'..\\__deployed\\yorick.html'
p154
L1505962460L
sS'..\\__deployed\\images\\jeh-tech\\icons\\users.png'
p155
L3423979133L
sS'..\\__deployed\\images\\jeh-tech\\icons\\add.png'
p156
L2532743502L
sS'..\\__deployed\\images\\jeh-tech\\single_dim_inner_prod.vsd'
p157
L101541400L
sS'..\\__deployed\\images\\jeh-tech\\python\\wxBoxSizerProportionsWithExpandFlag.PNG'
p158
L1434919532L
sS'..\\__deployed\\fonts\\GoudyStM-webfont.woff'
p159
L2522536683L
sS'..\\__deployed\\downloadables\\notebooks\\mpld3_example.ipynb'
p160
L1401125510L
sS'..\\__deployed\\images\\jeh-tech\\big_letter.vsd'
p161
L1131303738L
s.