(dp0
S'../__deployed/images/jeh-tech/3d_vectors_at_right_angles.png'
p1
I3107402110
sS'../__deployed/electronics.html'
p2
I878230004
sS'../__deployed/python/paramiko.html'
p3
I2541804539
sS'../__deployed/downloadables/notebooks/mpld3_example.ipynb'
p4
I3033297991
sS'../__deployed/images/jeh-tech/icons/add.png'
p5
I2532743502
sS'../__deployed/images/jeh-tech/python/subplt_shared_x_axis.png'
p6
I2459578870
sS'../__deployed/mysql.html'
p7
I2924654691
sS'../__deployed/images/jeh-tech/icons/remove.png'
p8
I1255171720
sS'../__deployed/images/ui-bg_flat_0_aaaaaa_40x100.png'
p9
I2869310412
sS'../__deployed/images/jeh-tech/python/pysvn.uxf'
p10
I2945262172
sS'../__deployed/images/jeh-tech/dot_product_yorick_4.png'
p11
I3100869254
sS'../__deployed/images/ui-bg_glass_75_dadada_1x400.png'
p12
I1941327539
sS'../__deployed/fonts/junction-bold.eot'
p13
I2615998327
sS'../__deployed/images/jeh-tech/python/btn_sizer_basic1.png'
p14
I3310678208
sS'../__deployed/images/jeh-tech/dist_sample_means_from_binom_10_demo_python.png'
p15
I3059935173
sS'../__deployed/images/jeh-tech/icons/alert.png'
p16
I3579709017
sS'../__deployed/images/jeh-tech/excel_data_select_finish_icon.PNG'
p17
I1181791275
sS'../__deployed/images/jeh-tech/openquote1.gif'
p18
I1189697656
sS'../__deployed/images/jeh-tech/excel_selection_change.png'
p19
I2990428754
sS'../__deployed/images/jeh-tech/TrustedRootCA_1.png'
p20
I2882934051
sS'../__deployed/fonts/junction-bold.ttf'
p21
I171150028
sS'../__deployed/images/jeh-tech/python/wxBoxSizerProportionsWithExpandFlag.PNG'
p22
I1434919532
sS'../__deployed/images/jeh-tech/expand.png'
p23
I3361828286
sS'../__deployed/images/jeh-tech/excel_data_validation_dialog.PNG'
p24
I1123809553
sS'../__deployed/images/ui-icons_cd0a0a_256x240.png'
p25
I2485332548
sS'../__deployed/images/jeh-tech/html5_canvas_half_pixel_rect.vsd'
p26
I992334237
sS'../__deployed/linux_script.html'
p27
I2153556500
sS'../__deployed/images/jeh-tech/loading_animation.gif'
p28
I366940378
sS'../__deployed/images/jeh-tech/3d_vectors_at_right_angles.vsd'
p29
I4094985773
sS'../__deployed/images/ui-bg_glass_95_fef1ec_1x400.png'
p30
I3500241832
sS'../__deployed/images/jeh-tech/small_letter.png'
p31
I1976565072
sS'../__deployed/images/jeh-tech/YorickRubberIndex.png'
p32
I1643207438
sS'../__deployed/images/jeh-tech/resistors_in_par.png'
p33
I3859527192
sS'../__deployed/images/jeh-tech/icons/tick.png'
p34
I3236721137
sS'../__deployed/images/jeh-tech/sampling_from_normal_demo_python_dist.png'
p35
I2664502414
sS'../__deployed/downloadables/LookUpAMatrix.xlsx'
p36
I407926542
sS'../__deployed/images/jeh-tech/sampling_from_normal_demo_python_dist_50.png'
p37
I1771658075
sS'../__deployed/images/ui-icons_222222_256x240.png'
p38
I3779470207
sS'../__deployed/images/jeh-tech/python/wxBoxSizerBasic.PNG'
p39
I1883283554
sS'../__deployed/images/jeh-tech/linewidth_html_canv_centre_pixel.png'
p40
I2030165465
sS'../__deployed/images/ui-icons_2e83ff_256x240.png'
p41
I1447391960
sS'../__deployed/images/jeh-tech/excel_load_vba_window.png'
p42
I3737537119
sS'../__deployed/images/jeh-tech/dot_product_yorick_3.vsd'
p43
I4146465518
sS'../__deployed/images/jeh-tech/install_guest_additions_from_menu.png'
p44
I521207428
sS'../__deployed/images/jeh-tech/python/boxsizerspacers.vsd'
p45
I498638615
sS'../__deployed/downloadables/notebooks/output_css_1.ipynb'
p46
I1598867445
sS'../__deployed/images/jeh-tech/bayes_rule_flow_chart.PNG'
p47
I3598061755
sS'../__deployed/html_canvas.html'
p48
I2828394612
sS'../__deployed/mvc.html'
p49
I3949696501
sS'../__deployed/images/jeh-tech/python/pysvn.png'
p50
I4080846821
sS'../__deployed/images/jeh-tech/PCB_bkdg.jpg'
p51
I695619354
sS'../__deployed/images/jeh-tech/excel_vlookup.PNG'
p52
I3839618471
sS'../__deployed/ssl.html'
p53
I372912737
sS'../__deployed/fonts/junction-regular.ttf'
p54
I2027175246
sS'../__deployed/excel.html'
p55
I3980463209
sS'../__deployed/images/jeh-tech/icons/users.png'
p56
I3423979133
sS'../__deployed/images/jeh-tech/poisson_distrib.png'
p57
I2647609466
sS'../__deployed/yorick.html'
p58
I87763750
sS'../__deployed/images/jeh-tech/SumSeries.png'
p59
I2624971663
sS'../__deployed/images/jeh-tech/wheatstone_bridge.png'
p60
I1675069042
sS'../__deployed/images/jeh-tech/rotate_vector.png'
p61
I1600297863
sS'../__deployed/images/jeh-tech/icons/comment.png'
p62
I2685515417
sS'../__deployed/svn.html'
p63
I1307242017
sS'../__deployed/images/ui-icons_454545_256x240.png'
p64
I1192642246
sS'../__deployed/fonts/leaguespartan-bold.woff'
p65
I2954346416
sS'../__deployed/images/jeh-tech/python/pandas_landreg.png'
p66
I490140588
sS'../__deployed/test.html'
p67
I3006082881
sS'../__deployed/images/jeh-tech/poisson_road_fatilities_distrib.png'
p68
I4091334362
sS'../__deployed/images/jeh-tech/icons/notepad.png'
p69
I1373989924
sS'../__deployed/images/jeh-tech/yorick_boardcast_unit_dim.png'
p70
I373831379
sS'../__deployed/images/jeh-tech/dist_sample_means_from_binom_4000_demo_python.png'
p71
I3665872931
sS'../__deployed/images/jeh-tech/medium_letter.png'
p72
I4244637453
sS'../__deployed/images/jeh-tech/linewidth_html_canv_centre_pixel_thick_line.png'
p73
I3987510883
sS'../__deployed/images/jeh-tech/python/3d_array.png'
p74
I1364181974
sS'../__deployed/images/jeh-tech/sampling_from_a_population.vsd'
p75
I213899787
sS'../__deployed/win_script.html'
p76
I3829836066
sS'../__deployed/images/jeh-tech/conventional_current.png'
p77
I867764297
sS'../__deployed/images/jeh-tech/stats_venn_dependent.png'
p78
I2850045408
sS'../__deployed/images/jeh-tech/big_letter.vsd'
p79
I1131303738
sS'../__deployed/images/jeh-tech/python/2d_array.png'
p80
I3399284519
sS'../__deployed/images/jeh-tech/dot_product_yorick_2.png'
p81
I3153038181
sS'../__deployed/images/jeh-tech/solve_linear_equations_norm.vsd'
p82
I2068162402
sS'../__deployed/fonts/GoudyStM-webfont.ttf'
p83
I990476620
sS'../__deployed/images/jeh-tech/single_dim_inner_prod.png'
p84
I2082605890
sS'../__deployed/javascript.html'
p85
I678349154
sS'../__deployed/python/numpy.html'
p86
I2147219623
sS'../__deployed/images/jeh-tech/bayes_rule_flow_chart.vsd'
p87
I1679557561
sS'../__deployed/fonts/leaguespartan-bold.woff2'
p88
I3825300268
sS'../__deployed/images/jeh-tech/linear_independence_2.png'
p89
I2208876737
sS'../__deployed/images/jeh-tech/bayes_bbbr_decision_tree.vsd'
p90
I1801856322
sS'../__deployed/git.html'
p91
I3213230942
sS'../__deployed/vi.html'
p92
I953157983
sS'../__deployed/google262535b904af2297.html'
p93
I174920219
sS'../__deployed/mail.php'
p94
I157988808
sS'../__deployed/images/ui-icons_888888_256x240.png'
p95
I3291416662
sS'../__deployed/fonts/GoudyStM-webfont.woff'
p96
I2522536683
sS'../__deployed/images/jeh-tech/phasor_animation.gif'
p97
I569159480
sS'../__deployed/fonts/junction-regular.woff'
p98
I546278547
sS'../__deployed/downloadables/TwistingTheTriad.PDF'
p99
I2222544967
sS'../__deployed/downloadables/notebooks/output_css_3.ipynb'
p100
I815714586
sS'../__deployed/images/jeh-tech/C_3D_Array.vsd'
p101
I3125261148
sS'../__deployed/quotes.html'
p102
I3179189501
sS'../__deployed/images/jeh-tech/solve_linear_equations.png'
p103
I2449082019
sS'../__deployed/images/jeh-tech/linewidth_html_canv.png'
p104
I315128115
sS'../__deployed/images/jeh-tech/yorick_broadcast.png'
p105
I1205122955
sS'../__deployed/images/ui-bg_glass_65_ffffff_1x400.png'
p106
I3786289852
sS'../__deployed/misc.html'
p107
I3040183585
sS'../__deployed/python/pysvn.html'
p108
I1605480345
sS'../__deployed/images/jeh-tech/icons/calendar.png'
p109
I2174384455
sS'../__deployed/recaptchalib.php'
p110
I2371147264
sS'../__deployed/images/ui-bg_glass_55_fbf9ee_1x400.png'
p111
I1618703785
sS'../__deployed/mathsy_stuff/gaussians.html'
p112
I1666673655
sS'../__deployed/images/jeh-tech/closequote1.gif'
p113
I800150224
sS'../__deployed/images/jeh-tech/linear_independence_1.png'
p114
I421541576
sS'../__deployed/images/ui-bg_flat_75_ffffff_40x100.png'
p115
I4257363120
sS'../__deployed/index.html'
p116
I3536637977
sS'../__deployed/c.html'
p117
I4031911832
sS'../__deployed/images/jeh-tech/Prob_A_and_B_independent.png'
p118
I1356869459
sS'../__deployed/fonts/GoudyStM-webfont.eot'
p119
I1905039233
sS'../__deployed/images/ui-bg_glass_25_CAD7E3_1x400.png'
p120
I3950344369
sS'../__deployed/robots.txt'
p121
I2401380513
sS'../__deployed/fonts/junction-regular.eot'
p122
I1853402731
sS'../__deployed/images/jeh-tech/python/wxBoxSizerProportionsVerticallyWithoutExpandFlag.PNG'
p123
I1750511082
sS'../__deployed/images/jeh-tech/yorick_pseudo_index.jpg'
p124
I3798556151
sS'../__deployed/images/jeh-tech/ManageCertificates.png'
p125
I3033434108
sS'../__deployed/images/jeh-tech/r_split_1.png'
p126
I1188074896
sS'../__deployed/images/jeh-tech/python/btn_sizer_basic2.png'
p127
I1444321019
sS'../__deployed/python/pyplot.html'
p128
I658265355
sS'../__deployed/images/jeh-tech/python/boxsizerspacers.png'
p129
I1556427427
sS'../__deployed/downloadables/CS310GeneticAlgsProject.pdf'
p130
I3762612930
sS'../__deployed/python/argparse.html'
p131
I475241305
sS'../__deployed/images/jeh-tech/icons/comment (1).png'
p132
I2685515417
sS'../__deployed/fonts/leaguespartan-bold.eot'
p133
I3468735793
sS'../__deployed/R.html'
p134
I1270536634
sS'../__deployed/fonts/leaguespartan-bold.ttf'
p135
I117576886
sS'../__deployed/images/jeh-tech/stats_venn_AandB.vsd'
p136
I2132835633
sS'../__deployed/images/jeh-tech/conf_z_95p.png'
p137
I3299829478
sS'../__deployed/images/jeh-tech/resistors_in_parallel.png'
p138
I789895985
sS'../__deployed/images/jeh-tech/crypto_plaintext_problem.png'
p139
I3225659089
sS'../__deployed/images/jeh-tech/dot_product_yorick_1.png'
p140
I3804603984
sS'../__deployed/images/jeh-tech/conf_interval_1.jpg'
p141
I2571904631
sS'../__deployed/images/jeh-tech/dot_product_normal.png'
p142
I2978237173
sS'../__deployed/images/jeh-tech/excel_summarise_for_subject_list.PNG'
p143
I636200105
sS'../__deployed/images/jeh-tech/msgbox_ok_cancel.png'
p144
I4249278424
sS'../__deployed/images/jeh-tech/msgbox_ok.png'
p145
I99401166
sS'../__deployed/images/jeh-tech/excel_load_vba_worksheet_events.png'
p146
I414879384
sS'../__deployed/images/jeh-tech/virtual_box_add_shared_dir.png'
p147
I4042483181
sS'../__deployed/images/jeh-tech/excel_add_data_validation_steps.PNG'
p148
I3810558145
sS'../__deployed/images/jeh-tech/sampling_from_normal_demo_python_dist_1000.png'
p149
I3563336261
sS'../__deployed/python/python.html'
p150
I759158491
sS'../__deployed/images/jeh-tech/wheatstone_is_non_linear.png'
p151
I3555603379
sS'../__deployed/images/jeh-tech/binomial_distrib_example.png'
p152
I1378799532
sS'../__deployed/images/jeh-tech/SimpleDB_MVC_Problem.png'
p153
I346366740
sS'../__deployed/images/jeh-tech/excel_cell_now_student_dtopdown.PNG'
p154
I4055259327
sS'../__deployed/images/jeh-tech/excel_table_row_col_labeled.PNG'
p155
I2401752679
sS'../__deployed/tcl.html'
p156
I1711452285
sS'../__deployed/images/jeh-tech/solve_linear_equations_oopsvsd.vsd'
p157
I871343761
sS'../__deployed/images/jeh-tech/conf_interval_sample_distrib.jpg'
p158
I719321488
sS'../__deployed/images/jeh-tech/Simple_DB_For_MVC_GUI.png'
p159
I1240744382
sS'../__deployed/images/jeh-tech/confidence_interval_illustration.png'
p160
I1733097593
sS'../__deployed/python/pandas.html'
p161
I1842294153
sS'../__deployed/images/jeh-tech/python/coloured_bar_graph.png'
p162
I3378136661
sS'../__deployed/images/jeh-tech/array_3d.vsd'
p163
I2525432146
sS'../__deployed/python/wxpython.html'
p164
I567617896
sS'../__deployed/jeh-monolith.js'
p165
I2895368922
sS'../__deployed/images/jeh-tech/current_divider.png'
p166
I2822002574
sS'../__deployed/images/jeh-tech/python/wxBoxSizerProportionsWithoutExpandFlag.PNG'
p167
I3482132533
sS'../__deployed/images/jeh-tech/excel_data_validation_dialog_completed.PNG'
p168
I1467967067
sS'../__deployed/images/jeh-tech/solve_linear_equations_oops.png'
p169
I2753359592
sS'../__deployed/images/jeh-tech/r_split.vsd'
p170
I1747346541
sS'../__deployed/images/jeh-tech/stats_venn_independent.png'
p171
I2296812629
sS'../__deployed/images/jeh-tech/PCB_bkdg_ORIG.jpg'
p172
I3983032631
sS'../__deployed/images/jeh-tech/dot_product_yorick_2.vsd'
p173
I2259183631
sS'../__deployed/images/jeh-tech/solve_linear_equations_norm.png'
p174
I3177966244
sS'../__deployed/images/jeh-tech/voltage_divider.png'
p175
I3692898269
sS'../__deployed/images/jeh-tech/Fotolia_67029924_L_ORIG.jpg'
p176
I3184733182
sS'../__deployed/images/jeh-tech/sampling_from_a_population.png'
p177
I1197090426
sS'../__deployed/contact.html'
p178
I2856401222
sS'../__deployed/images/jeh-tech/python/subplt_independent_x_axis.png'
p179
I2556713178
sS'../__deployed/images/jeh-tech/Prob_A_and_B_dependent.png'
p180
I2745626359
sS'../__deployed/images/jeh-tech/Prob_Conditional.png'
p181
I2781626536
sS'../__deployed/fonts/junction-bold.woff'
p182
I418864482
sS'../__deployed/xml.html'
p183
I2022152608
sS'../__deployed/images/jeh-tech/add_vbox_additions_iso.png'
p184
I765522014
sS'../__deployed/images/jeh-tech/msgbox_yesno_cancel.png'
p185
I535961949
sS'../__deployed/python/ipython_notebooks.html'
p186
I644130502
sS'../__deployed/images/jeh-tech/sampling_from_normal_demo_python_dist_10000.png'
p187
I388048328
sS'../__deployed/images/jeh-tech/stats_law_of_large_numbers.png'
p188
I1534969441
sS'../__deployed/images/jeh-tech/sampling_from_normal_demo_python.png'
p189
I2415592704
sS'../__deployed/images/jeh-tech/TrustedRootCA_2.png'
p190
I3414516328
sS'../__deployed/images/jeh-tech/excel_match_example.PNG'
p191
I3048121418
sS'../__deployed/images/jeh-tech/big_letter.png'
p192
I3182695786
sS'../__deployed/images/jeh-tech/Prob_A_and_B.vsd'
p193
I3537225410
sS'../__deployed/images/jeh-tech/dot_product_yorick_3.png'
p194
I1412312961
sS'../__deployed/images/jeh-tech/icons/alert - Copy.png'
p195
I3656024312
sS'../__deployed/images/jeh-tech/msgbox_yesno.png'
p196
I3168219944
sS'../__deployed/images/jeh-tech/icons/notepad - Copy.png'
p197
I2978188971
sS'../__deployed/images/jeh-tech/dot_product_yorick_4.vsd'
p198
I868285560
sS'../__deployed/images/jeh-tech/excel_select_table_row_headers.PNG'
p199
I361620067
sS'../__deployed/images/jeh-tech/warning.png'
p200
I1543352469
sS'../__deployed/images/ui-bg_highlight-soft_0_9DB3C7_1x100.png'
p201
I1751200253
sS'../__deployed/dsp/deconvolution.html'
p202
I3091215372
sS'../__deployed/images/jeh-tech/C_3D_Array.png'
p203
I137577064
sS'../__deployed/images/jeh-tech/solve_linear_equations.vsd'
p204
I2301301009
sS'../__deployed/images/jeh-tech/Prob_A_and_B_double_count.png'
p205
I3366997774
sS'../__deployed/fonts/leaguespartan-bold.svg'
p206
I3450498539
sS'../__deployed/images/jeh-tech/MVC_From_SmallTalk_Article.png'
p207
I4230329495
sS'../__deployed/images/jeh-tech/bayes_bbbr_decision_tree.png'
p208
I2807266243
sS'../__deployed/images/jeh-tech/dot_product_normal.vsd'
p209
I2713906654
sS'../__deployed/images/jeh-tech/dot_product_yorick_1.vsd'
p210
I4224960114
sS'../__deployed/mathsy_stuff/math_revision.html'
p211
I2446816574
sS'../__deployed/images/jeh-tech/excel_table_test_score_want_list.PNG'
p212
I1173910598
sS'../__deployed/python/psutil.html'
p213
I1877159645
sS'../__deployed/downloadables/notebooks/output_css_2.ipynb'
p214
I1560759373
sS'../__deployed/images/jeh-tech/excel_data_select_icon.PNG'
p215
I798419141
sS'../__deployed/images/jeh-tech/linear_independence.vsd'
p216
I3350340040
sS'../__deployed/tst.html'
p217
I2109592906
sS'../__deployed/mathsy_stuff/linear_alg.html'
p218
I3219329877
sS'../__deployed/images/jeh-tech/collapse.png'
p219
I3550564855
sS'../__deployed/images/jeh-tech/icons/computer.png'
p220
I186961852
sS'../__deployed/mathsy_stuff/stats.html'
p221
I3751582013
sS'../__deployed/images/jeh-tech/single_dim_inner_prod.vsd'
p222
I101541400
sS'../__deployed/jeh-monolith.css'
p223
I3348686129
sS'../__deployed/images/jeh-tech/excel_click_cell_load_img.png'
p224
I429785749
s.