(dp0
S'..\\__deployed\\images\\jeh-tech\\excel_select_table_row_headers.PNG'
p1
L361620067L
sS'..\\__deployed\\images\\jeh-tech\\excel_selection_change.png'
p2
L2990428754L
sS'..\\__deployed\\images\\jeh-tech\\SumSeries.png'
p3
L2624971663L
sS'..\\__deployed\\images\\ui-bg_glass_55_fbf9ee_1x400.png'
p4
L1618703785L
sS'..\\__deployed\\google262535b904af2297.html'
p5
L174920219L
sS'..\\__deployed\\images\\jeh-tech\\C_3D_Array.png'
p6
L137577064L
sS'..\\__deployed\\fonts\\junction-regular.eot'
p7
L1853402731L
sS'..\\__deployed\\images\\jeh-tech\\dist_sample_means_from_binom_4000_demo_python.png'
p8
L3665872931L
sS'..\\__deployed\\mail.php'
p9
L250858614L
sS'..\\__deployed\\images\\jeh-tech\\python\\subplt_shared_x_axis.png'
p10
L2459578870L
sS'..\\__deployed\\python\\pyplot.html'
p11
L2280422042L
sS'..\\__deployed\\c.html'
p12
L1382669891L
sS'..\\__deployed\\python\\ipython_notebooks.html'
p13
L3467164493L
sS'..\\__deployed\\images\\jeh-tech\\Prob_Conditional.png'
p14
L2781626536L
sS'..\\__deployed\\mathsy_stuff\\gaussians.html'
p15
L609057941L
sS'..\\__deployed\\electronics.html'
p16
L1285741968L
sS'..\\__deployed\\javascript.html'
p17
L942473108L
sS'..\\__deployed\\images\\jeh-tech\\loading_animation.gif'
p18
L366940378L
sS'..\\__deployed\\python\\psutil.html'
p19
L3660463137L
sS'..\\__deployed\\images\\jeh-tech\\python\\3d_array.png'
p20
L1364181974L
sS'..\\__deployed\\images\\jeh-tech\\icons\\computer.png'
p21
L186961852L
sS'..\\__deployed\\images\\ui-icons_888888_256x240.png'
p22
L3291416662L
sS'..\\__deployed\\images\\jeh-tech\\r_split.vsd'
p23
L1747346541L
sS'..\\__deployed\\images\\jeh-tech\\excel_data_validation_dialog.PNG'
p24
L1123809553L
sS'..\\__deployed\\images\\jeh-tech\\C_3D_Array.vsd'
p25
L3125261148L
sS'..\\__deployed\\images\\jeh-tech\\r_split_1.png'
p26
L1188074896L
sS'..\\__deployed\\images\\jeh-tech\\crypto_plaintext_problem.png'
p27
L3225659089L
sS'..\\__deployed\\images\\jeh-tech\\rotate_vector.png'
p28
L1600297863L
sS'..\\__deployed\\mathsy_stuff\\linear_alg.html'
p29
L3545705192L
sS'..\\__deployed\\images\\jeh-tech\\dot_product_yorick_1.vsd'
p30
L4224960114L
sS'..\\__deployed\\images\\jeh-tech\\solve_linear_equations.vsd'
p31
L2301301009L
sS'..\\__deployed\\images\\jeh-tech\\stats_venn_independent.png'
p32
L2296812629L
sS'..\\__deployed\\images\\jeh-tech\\bayes_bbbr_decision_tree.vsd'
p33
L1801856322L
sS'..\\__deployed\\images\\jeh-tech\\add_vbox_additions_iso.png'
p34
L765522014L
sS'..\\__deployed\\git.html'
p35
L2052725112L
sS'..\\__deployed\\images\\jeh-tech\\dot_product_normal.vsd'
p36
L2713906654L
sS'..\\__deployed\\excel.html'
p37
L4261291641L
sS'..\\__deployed\\images\\jeh-tech\\sampling_from_normal_demo_python_dist_10000.png'
p38
L388048328L
sS'..\\__deployed\\images\\jeh-tech\\python\\wxBoxSizerBasic.PNG'
p39
L1883283554L
sS'..\\__deployed\\images\\jeh-tech\\excel_data_select_finish_icon.PNG'
p40
L1181791275L
sS'..\\__deployed\\fonts\\junction-bold.woff'
p41
L418864482L
sS'..\\__deployed\\images\\jeh-tech\\resistors_in_par.png'
p42
L3859527192L
sS'..\\__deployed\\images\\ui-icons_454545_256x240.png'
p43
L1192642246L
sS'..\\__deployed\\images\\jeh-tech\\linewidth_html_canv.png'
p44
L315128115L
sS'..\\__deployed\\images\\jeh-tech\\yorick_boardcast_unit_dim.png'
p45
L373831379L
sS'..\\__deployed\\python\\pandas.html'
p46
L113987903L
sS'..\\__deployed\\images\\jeh-tech\\linewidth_html_canv_centre_pixel.png'
p47
L2030165465L
sS'..\\__deployed\\fonts\\junction-bold.ttf'
p48
L171150028L
sS'..\\__deployed\\images\\jeh-tech\\excel_match_example.PNG'
p49
L3048121418L
sS'..\\__deployed\\images\\jeh-tech\\dot_product_yorick_4.vsd'
p50
L868285560L
sS'..\\__deployed\\images\\ui-bg_highlight-soft_0_9DB3C7_1x100.png'
p51
L1751200253L
sS'..\\__deployed\\images\\jeh-tech\\bayes_rule_flow_chart.PNG'
p52
L3598061755L
sS'..\\__deployed\\python\\argparse.html'
p53
L2548345639L
sS'..\\__deployed\\images\\ui-bg_glass_95_fef1ec_1x400.png'
p54
L3500241832L
sS'..\\__deployed\\images\\jeh-tech\\excel_table_row_col_labeled.PNG'
p55
L2401752679L
sS'..\\__deployed\\images\\jeh-tech\\excel_summarise_for_subject_list.PNG'
p56
L636200105L
sS'..\\__deployed\\images\\jeh-tech\\PCB_bkdg.jpg'
p57
L695619354L
sS'..\\__deployed\\images\\ui-icons_cd0a0a_256x240.png'
p58
L2485332548L
sS'..\\__deployed\\linux_script.html'
p59
L2107472660L
sS'..\\__deployed\\images\\jeh-tech\\excel_click_cell_load_img.png'
p60
L429785749L
sS'..\\__deployed\\images\\jeh-tech\\python\\subplt_independent_x_axis.png'
p61
L2556713178L
sS'..\\__deployed\\images\\jeh-tech\\sampling_from_a_population.vsd'
p62
L213899787L
sS'..\\__deployed\\jeh-monolith.js'
p63
L2895368922L
sS'..\\__deployed\\images\\jeh-tech\\sampling_from_normal_demo_python.png'
p64
L2415592704L
sS'..\\__deployed\\python\\paramiko.html'
p65
L1833363398L
sS'..\\__deployed\\fonts\\leaguespartan-bold.woff2'
p66
L3825300268L
sS'..\\__deployed\\images\\jeh-tech\\bayes_rule_flow_chart.vsd'
p67
L1679557561L
sS'..\\__deployed\\yorick_matrix_anim_2.html'
p68
L2222773858L
sS'..\\__deployed\\images\\jeh-tech\\resistors_in_parallel.png'
p69
L789895985L
sS'..\\__deployed\\images\\jeh-tech\\solve_linear_equations_norm.png'
p70
L3177966244L
sS'..\\__deployed\\images\\jeh-tech\\yorick_pseudo_index.jpg'
p71
L3798556151L
sS'..\\__deployed\\images\\jeh-tech\\excel_vlookup.PNG'
p72
L3839618471L
sS'..\\__deployed\\downloadables\\TwistingTheTriad.PDF'
p73
L2222544967L
sS'..\\__deployed\\images\\jeh-tech\\dot_product_yorick_3.vsd'
p74
L4146465518L
sS'..\\__deployed\\images\\jeh-tech\\ManageCertificates.png'
p75
L3033434108L
sS'..\\__deployed\\images\\jeh-tech\\linewidth_html_canv_centre_pixel_thick_line.png'
p76
L3987510883L
sS'..\\__deployed\\vi.html'
p77
L1302076330L
sS'..\\__deployed\\images\\jeh-tech\\icons\\comment (1).png'
p78
L2685515417L
sS'..\\__deployed\\downloadables\\LookUpAMatrix.xlsx'
p79
L407926542L
sS'..\\__deployed\\images\\jeh-tech\\openquote1.gif'
p80
L1189697656L
sS'..\\__deployed\\fonts\\junction-regular.woff'
p81
L546278547L
sS'..\\__deployed\\images\\jeh-tech\\collapse.png'
p82
L3550564855L
sS'..\\__deployed\\images\\jeh-tech\\msgbox_ok.png'
p83
L99401166L
sS'..\\__deployed\\images\\jeh-tech\\conf_interval_sample_distrib.jpg'
p84
L719321488L
sS'..\\__deployed\\images\\ui-bg_glass_75_dadada_1x400.png'
p85
L1941327539L
sS'..\\__deployed\\images\\jeh-tech\\Prob_A_and_B_independent.png'
p86
L1356869459L
sS'..\\__deployed\\images\\ui-icons_2e83ff_256x240.png'
p87
L1447391960L
sS'..\\__deployed\\jeh-monolith.css'
p88
L1812456805L
sS'..\\__deployed\\images\\jeh-tech\\solve_linear_equations_oops.png'
p89
L2753359592L
sS'..\\__deployed\\images\\jeh-tech\\icons\\alert.png'
p90
L3579709017L
sS'..\\__deployed\\images\\jeh-tech\\virtual_box_add_shared_dir.png'
p91
L4042483181L
sS'..\\__deployed\\images\\jeh-tech\\python\\2d_array.png'
p92
L3399284519L
sS'..\\__deployed\\images\\ui-bg_glass_65_ffffff_1x400.png'
p93
L3786289852L
sS'..\\__deployed\\fonts\\GoudyStM-webfont.eot'
p94
L1905039233L
sS'..\\__deployed\\python\\pysvn.html'
p95
L968736225L
sS'..\\__deployed\\downloadables\\CS310GeneticAlgsProject.pdf'
p96
L3762612930L
sS'..\\__deployed\\images\\jeh-tech\\Prob_A_and_B.vsd'
p97
L3537225410L
sS'..\\__deployed\\html_canvas.html'
p98
L1274212652L
sS'..\\__deployed\\fonts\\leaguespartan-bold.svg'
p99
L3450498539L
sS'..\\__deployed\\contact.html'
p100
L2552710560L
sS'..\\__deployed\\images\\jeh-tech\\dot_product_yorick_4.png'
p101
L3100869254L
sS'..\\__deployed\\images\\jeh-tech\\solve_linear_equations_oopsvsd.vsd'
p102
L871343761L
sS'..\\__deployed\\fonts\\leaguespartan-bold.eot'
p103
L3468735793L
sS'..\\__deployed\\images\\jeh-tech\\small_letter.png'
p104
L1976565072L
sS'..\\__deployed\\images\\jeh-tech\\python\\pandas_landreg.png'
p105
L490140588L
sS'..\\__deployed\\images\\jeh-tech\\python\\wxBoxSizerProportionsVerticallyWithoutExpandFlag.PNG'
p106
L1750511082L
sS'..\\__deployed\\images\\jeh-tech\\voltage_divider.png'
p107
L3692898269L
sS'..\\__deployed\\mvc.html'
p108
L1445898972L
sS'..\\__deployed\\fonts\\junction-regular.ttf'
p109
L2027175246L
sS'..\\__deployed\\python\\numpy.html'
p110
L2406815212L
sS'..\\__deployed\\mysql.html'
p111
L2740440031L
sS'..\\__deployed\\fonts\\leaguespartan-bold.ttf'
p112
L117576886L
sS'..\\__deployed\\images\\jeh-tech\\solve_linear_equations.png'
p113
L2449082019L
sS'..\\__deployed\\images\\jeh-tech\\excel_load_vba_window.png'
p114
L3737537119L
sS'..\\__deployed\\images\\jeh-tech\\conventional_current.png'
p115
L867764297L
sS'..\\__deployed\\images\\jeh-tech\\solve_linear_equations_norm.vsd'
p116
L2068162402L
sS'..\\__deployed\\images\\jeh-tech\\poisson_distrib.png'
p117
L2647609466L
sS'..\\__deployed\\yorick_matrix_anim.html'
p118
L1727316002L
sS'..\\__deployed\\svn.html'
p119
L3460435180L
sS'..\\__deployed\\tcl.html'
p120
L733396274L
sS'..\\__deployed\\images\\jeh-tech\\conf_z_95p.png'
p121
L3299829478L
sS'..\\__deployed\\images\\jeh-tech\\poisson_road_fatilities_distrib.png'
p122
L4091334362L
sS'..\\__deployed\\images\\jeh-tech\\dot_product_normal.png'
p123
L2978237173L
sS'..\\__deployed\\python\\wxpython.html'
p124
L1743672959L
sS'..\\__deployed\\images\\jeh-tech\\linear_independence_2.png'
p125
L2208876737L
sS'..\\__deployed\\images\\jeh-tech\\3d_vectors_at_right_angles.png'
p126
L3107402110L
sS'..\\__deployed\\images\\jeh-tech\\excel_cell_now_student_dtopdown.PNG'
p127
L4055259327L
sS'..\\__deployed\\images\\jeh-tech\\sampling_from_normal_demo_python_dist.png'
p128
L2664502414L
sS'..\\__deployed\\win_script.html'
p129
L483047820L
sS'..\\__deployed\\images\\jeh-tech\\closequote1.gif'
p130
L800150224L
sS'..\\__deployed\\images\\jeh-tech\\dot_product_yorick_3.png'
p131
L1412312961L
sS'..\\__deployed\\images\\jeh-tech\\dot_product_yorick_2.png'
p132
L3153038181L
sS'..\\__deployed\\tst.html'
p133
L2625627270L
sS'..\\__deployed\\robots.txt'
p134
L1249323247L
sS'..\\__deployed\\images\\jeh-tech\\phasor_animation.gif'
p135
L569159480L
sS'..\\__deployed\\images\\jeh-tech\\excel_data_validation_dialog_completed.PNG'
p136
L1467967067L
sS'..\\__deployed\\images\\jeh-tech\\stats_venn_AandB.vsd'
p137
L2132835633L
sS'..\\__deployed\\images\\jeh-tech\\PCB_bkdg_ORIG.jpg'
p138
L3983032631L
sS'..\\__deployed\\images\\jeh-tech\\msgbox_yesno_cancel.png'
p139
L535961949L
sS'..\\__deployed\\images\\jeh-tech\\python\\btn_sizer_basic2.png'
p140
L1444321019L
sS'..\\__deployed\\images\\jeh-tech\\wheatstone_bridge.png'
p141
L1675069042L
sS'..\\__deployed\\misc.html'
p142
L4260533253L
sS'..\\__deployed\\images\\jeh-tech\\icons\\comment.png'
p143
L2685515417L
sS'..\\__deployed\\images\\jeh-tech\\icons\\notepad - Copy.png'
p144
L2978188971L
sS'..\\__deployed\\images\\jeh-tech\\python\\boxsizerspacers.png'
p145
L1556427427L
sS'..\\__deployed\\R.html'
p146
L2450055671L
sS'..\\__deployed\\recaptchalib.php'
p147
L1316414481L
sS'..\\__deployed\\images\\jeh-tech\\single_dim_inner_prod.png'
p148
L2082605890L
sS'..\\__deployed\\images\\jeh-tech\\linear_independence_1.png'
p149
L421541576L
sS'..\\__deployed\\images\\jeh-tech\\current_divider.png'
p150
L2822002574L
sS'..\\__deployed\\images\\jeh-tech\\icons\\notepad.png'
p151
L1373989924L
sS'..\\__deployed\\xml.html'
p152
L2517282226L
sS'..\\__deployed\\images\\jeh-tech\\python\\pysvn.png'
p153
L4080846821L
sS'..\\__deployed\\images\\jeh-tech\\python\\pysvn.uxf'
p154
L850931379L
sS'..\\__deployed\\images\\jeh-tech\\big_letter.png'
p155
L3182695786L
sS'..\\__deployed\\images\\jeh-tech\\conf_interval_1.jpg'
p156
L2571904631L
sS'..\\__deployed\\images\\jeh-tech\\excel_load_vba_worksheet_events.png'
p157
L414879384L
sS'..\\__deployed\\images\\jeh-tech\\icons\\remove.png'
p158
L1255171720L
sS'..\\__deployed\\images\\jeh-tech\\stats_law_of_large_numbers.png'
p159
L1534969441L
sS'..\\__deployed\\images\\jeh-tech\\sampling_from_a_population.png'
p160
L1197090426L
sS'..\\__deployed\\images\\jeh-tech\\wheatstone_is_non_linear.png'
p161
L3555603379L
sS'..\\__deployed\\dsp\\deconvolution.html'
p162
L702627422L
sS'..\\__deployed\\images\\jeh-tech\\SimpleDB_MVC_Problem.png'
p163
L346366740L
sS'..\\__deployed\\images\\jeh-tech\\icons\\tick.png'
p164
L3236721137L
sS'..\\__deployed\\images\\jeh-tech\\icons\\calendar.png'
p165
L2174384455L
sS'..\\__deployed\\images\\jeh-tech\\dot_product_yorick_2.vsd'
p166
L2259183631L
sS'..\\__deployed\\images\\jeh-tech\\Simple_DB_For_MVC_GUI.png'
p167
L1240744382L
sS'..\\__deployed\\images\\ui-bg_flat_75_ffffff_40x100.png'
p168
L4257363120L
sS'..\\__deployed\\images\\ui-bg_flat_0_aaaaaa_40x100.png'
p169
L2869310412L
sS'..\\__deployed\\images\\jeh-tech\\3d_vectors_at_right_angles.vsd'
p170
L4094985773L
sS'..\\__deployed\\images\\jeh-tech\\MVC_From_SmallTalk_Article.png'
p171
L4230329495L
sS'..\\__deployed\\downloadables\\notebooks\\output_css_2.ipynb'
p172
L2922861352L
sS'..\\__deployed\\images\\jeh-tech\\html5_canvas_half_pixel_rect.vsd'
p173
L992334237L
sS'..\\__deployed\\images\\jeh-tech\\TrustedRootCA_1.png'
p174
L2882934051L
sS'..\\__deployed\\images\\jeh-tech\\Prob_A_and_B_double_count.png'
p175
L3366997774L
sS'..\\__deployed\\test.html'
p176
L4158536733L
sS'..\\__deployed\\mathsy_stuff\\stats.html'
p177
L2305306087L
sS'..\\__deployed\\downloadables\\notebooks\\output_css_1.ipynb'
p178
L2104413969L
sS'..\\__deployed\\images\\jeh-tech\\python\\wxBoxSizerProportionsWithoutExpandFlag.PNG'
p179
L3482132533L
sS'..\\__deployed\\images\\jeh-tech\\stats_venn_dependent.png'
p180
L2850045408L
sS'..\\__deployed\\fonts\\GoudyStM-webfont.ttf'
p181
L990476620L
sS'..\\__deployed\\images\\jeh-tech\\python\\btn_sizer_basic1.png'
p182
L3310678208L
sS'..\\__deployed\\images\\jeh-tech\\icons\\alert - Copy.png'
p183
L3656024312L
sS'..\\__deployed\\images\\ui-bg_glass_25_CAD7E3_1x400.png'
p184
L3950344369L
sS'..\\__deployed\\images\\jeh-tech\\Prob_A_and_B_dependent.png'
p185
L2745626359L
sS'..\\__deployed\\images\\jeh-tech\\python\\coloured_bar_graph.png'
p186
L3378136661L
sS'..\\__deployed\\images\\ui-icons_222222_256x240.png'
p187
L3779470207L
sS'..\\__deployed\\fonts\\junction-bold.eot'
p188
L2615998327L
sS'..\\__deployed\\images\\jeh-tech\\install_guest_additions_from_menu.png'
p189
L521207428L
sS'..\\__deployed\\images\\jeh-tech\\YorickRubberIndex.png'
p190
L1643207438L
sS'..\\__deployed\\fonts\\leaguespartan-bold.woff'
p191
L2954346416L
sS'..\\__deployed\\images\\jeh-tech\\dot_product_yorick_1.png'
p192
L3804603984L
sS'..\\__deployed\\images\\jeh-tech\\Fotolia_67029924_L_ORIG.jpg'
p193
L3184733182L
sS'..\\__deployed\\images\\jeh-tech\\python\\boxsizerspacers.vsd'
p194
L498638615L
sS'..\\__deployed\\images\\jeh-tech\\confidence_interval_illustration.png'
p195
L1733097593L
sS'..\\__deployed\\index.html'
p196
L2282937017L
sS'..\\__deployed\\images\\jeh-tech\\expand.png'
p197
L3361828286L
sS'..\\__deployed\\images\\jeh-tech\\yorick_broadcast.png'
p198
L1205122955L
sS'..\\__deployed\\images\\jeh-tech\\warning.png'
p199
L1543352469L
sS'..\\__deployed\\images\\jeh-tech\\linear_independence.vsd'
p200
L3350340040L
sS'..\\__deployed\\images\\jeh-tech\\array_3d.vsd'
p201
L2525432146L
sS'..\\__deployed\\quotes.html'
p202
L1081517259L
sS'..\\__deployed\\images\\jeh-tech\\bayes_bbbr_decision_tree.png'
p203
L2807266243L
sS'..\\__deployed\\animatron_player.js'
p204
L3428095430L
sS'..\\__deployed\\images\\jeh-tech\\medium_letter.png'
p205
L4244637453L
sS'..\\__deployed\\mathsy_stuff\\math_revision.html'
p206
L2244253355L
sS'..\\__deployed\\images\\jeh-tech\\sampling_from_normal_demo_python_dist_50.png'
p207
L1771658075L
sS'..\\__deployed\\ssl.html'
p208
L20012638L
sS'..\\__deployed\\images\\jeh-tech\\excel_add_data_validation_steps.PNG'
p209
L3810558145L
sS'..\\__deployed\\images\\jeh-tech\\dist_sample_means_from_binom_10_demo_python.png'
p210
L3059935173L
sS'..\\__deployed\\python\\python.html'
p211
L3459513159L
sS'..\\__deployed\\images\\jeh-tech\\excel_data_select_icon.PNG'
p212
L798419141L
sS'..\\__deployed\\downloadables\\notebooks\\output_css_3.ipynb'
p213
L3785873345L
sS'..\\__deployed\\images\\jeh-tech\\binomial_distrib_example.png'
p214
L1378799532L
sS'..\\__deployed\\images\\jeh-tech\\sampling_from_normal_demo_python_dist_1000.png'
p215
L3563336261L
sS'..\\__deployed\\images\\jeh-tech\\TrustedRootCA_2.png'
p216
L3414516328L
sS'..\\__deployed\\images\\jeh-tech\\msgbox_yesno.png'
p217
L3168219944L
sS'..\\__deployed\\yorick.html'
p218
L3154453567L
sS'..\\__deployed\\images\\jeh-tech\\icons\\users.png'
p219
L3423979133L
sS'..\\__deployed\\images\\jeh-tech\\icons\\add.png'
p220
L2532743502L
sS'..\\__deployed\\images\\jeh-tech\\msgbox_ok_cancel.png'
p221
L4249278424L
sS'..\\__deployed\\images\\jeh-tech\\single_dim_inner_prod.vsd'
p222
L101541400L
sS'..\\__deployed\\images\\jeh-tech\\python\\wxBoxSizerProportionsWithExpandFlag.PNG'
p223
L1434919532L
sS'..\\__deployed\\fonts\\GoudyStM-webfont.woff'
p224
L2522536683L
sS'..\\__deployed\\downloadables\\notebooks\\mpld3_example.ipynb'
p225
L1401125510L
sS'..\\__deployed\\images\\jeh-tech\\big_letter.vsd'
p226
L1131303738L
sS'..\\__deployed\\images\\jeh-tech\\excel_table_test_score_want_list.PNG'
p227
L1173910598L
s.