(dp0
S'..\\__deployed\\images\\jeh-tech\\excel_select_table_row_headers.PNG'
p1
L361620067L
sS'..\\__deployed\\images\\jeh-tech\\SumSeries.png'
p2
L2624971663L
sS'..\\__deployed\\images\\ui-bg_glass_55_fbf9ee_1x400.png'
p3
L1618703785L
sS'..\\__deployed\\google262535b904af2297.html'
p4
L174920219L
sS'..\\__deployed\\images\\jeh-tech\\C_3D_Array.png'
p5
L137577064L
sS'..\\__deployed\\fonts\\junction-regular.eot'
p6
L1853402731L
sS'..\\__deployed\\images\\jeh-tech\\Prob_Conditional.png'
p7
L2781626536L
sS'..\\__deployed\\images\\jeh-tech\\python\\subplt_shared_x_axis.png'
p8
L2459578870L
sS'..\\__deployed\\python\\pyplot.html'
p9
L1128074371L
sS'..\\__deployed\\c.html'
p10
L3650946092L
sS'..\\__deployed\\python\\ipython_notebooks.html'
p11
L2819779274L
sS'..\\__deployed\\mathsy_stuff\\gaussians.html'
p12
L2350853138L
sS'..\\__deployed\\javascript.html'
p13
L2804658493L
sS'..\\__deployed\\images\\jeh-tech\\loading_animation.gif'
p14
L366940378L
sS'..\\__deployed\\images\\jeh-tech\\python\\3d_array.png'
p15
L1364181974L
sS'..\\__deployed\\images\\jeh-tech\\icons\\computer.png'
p16
L186961852L
sS'..\\__deployed\\images\\ui-icons_888888_256x240.png'
p17
L3291416662L
sS'..\\__deployed\\images\\jeh-tech\\r_split.vsd'
p18
L1747346541L
sS'..\\__deployed\\images\\jeh-tech\\excel_data_validation_dialog.PNG'
p19
L1123809553L
sS'..\\__deployed\\images\\jeh-tech\\C_3D_Array.vsd'
p20
L3125261148L
sS'..\\__deployed\\images\\jeh-tech\\r_split_1.png'
p21
L1188074896L
sS'..\\__deployed\\images\\jeh-tech\\crypto_plaintext_problem.png'
p22
L3225659089L
sS'..\\__deployed\\images\\jeh-tech\\rotate_vector.png'
p23
L1600297863L
sS'..\\__deployed\\mathsy_stuff\\linear_alg.html'
p24
L1950866006L
sS'..\\__deployed\\images\\jeh-tech\\dot_product_yorick_1.vsd'
p25
L4224960114L
sS'..\\__deployed\\images\\jeh-tech\\solve_linear_equations.vsd'
p26
L2301301009L
sS'..\\__deployed\\images\\jeh-tech\\bayes_bbbr_decision_tree.vsd'
p27
L1801856322L
sS'..\\__deployed\\git.html'
p28
L263506706L
sS'..\\__deployed\\images\\jeh-tech\\dot_product_normal.vsd'
p29
L2713906654L
sS'..\\__deployed\\excel.html'
p30
L2904996357L
sS'..\\__deployed\\images\\jeh-tech\\python\\wxBoxSizerBasic.PNG'
p31
L1883283554L
sS'..\\__deployed\\images\\jeh-tech\\excel_data_select_finish_icon.PNG'
p32
L1181791275L
sS'..\\__deployed\\fonts\\junction-bold.woff'
p33
L418864482L
sS'..\\__deployed\\images\\jeh-tech\\resistors_in_par.png'
p34
L3859527192L
sS'..\\__deployed\\images\\ui-icons_454545_256x240.png'
p35
L1192642246L
sS'..\\__deployed\\images\\jeh-tech\\linewidth_html_canv.png'
p36
L315128115L
sS'..\\__deployed\\images\\jeh-tech\\yorick_boardcast_unit_dim.png'
p37
L373831379L
sS'..\\__deployed\\python\\pandas.html'
p38
L466550972L
sS'..\\__deployed\\images\\jeh-tech\\linewidth_html_canv_centre_pixel.png'
p39
L2030165465L
sS'..\\__deployed\\fonts\\junction-bold.ttf'
p40
L171150028L
sS'..\\__deployed\\images\\jeh-tech\\excel_match_example.PNG'
p41
L3048121418L
sS'..\\__deployed\\images\\jeh-tech\\dot_product_yorick_4.vsd'
p42
L868285560L
sS'..\\__deployed\\images\\ui-bg_highlight-soft_0_9DB3C7_1x100.png'
p43
L1751200253L
sS'..\\__deployed\\images\\jeh-tech\\bayes_rule_flow_chart.PNG'
p44
L3598061755L
sS'..\\__deployed\\images\\ui-bg_glass_95_fef1ec_1x400.png'
p45
L3500241832L
sS'..\\__deployed\\images\\jeh-tech\\excel_table_row_col_labeled.PNG'
p46
L2401752679L
sS'..\\__deployed\\images\\jeh-tech\\excel_summarise_for_subject_list.PNG'
p47
L636200105L
sS'..\\__deployed\\images\\jeh-tech\\PCB_bkdg.jpg'
p48
L695619354L
sS'..\\__deployed\\images\\ui-icons_cd0a0a_256x240.png'
p49
L2485332548L
sS'..\\__deployed\\svn.html'
p50
L463784907L
sS'..\\__deployed\\images\\jeh-tech\\python\\subplt_independent_x_axis.png'
p51
L2556713178L
sS'..\\__deployed\\jeh-monolith.js'
p52
L3959336583L
sS'..\\__deployed\\fonts\\leaguespartan-bold.woff2'
p53
L3825300268L
sS'..\\__deployed\\images\\jeh-tech\\bayes_rule_flow_chart.vsd'
p54
L1679557561L
sS'..\\__deployed\\images\\jeh-tech\\resistors_in_parallel.png'
p55
L789895985L
sS'..\\__deployed\\images\\jeh-tech\\solve_linear_equations_norm.png'
p56
L3177966244L
sS'..\\__deployed\\images\\jeh-tech\\yorick_pseudo_index.jpg'
p57
L3798556151L
sS'..\\__deployed\\images\\jeh-tech\\excel_vlookup.PNG'
p58
L3839618471L
sS'..\\__deployed\\downloadables\\TwistingTheTriad.PDF'
p59
L2222544967L
sS'..\\__deployed\\images\\jeh-tech\\dot_product_yorick_3.vsd'
p60
L4146465518L
sS'..\\__deployed\\images\\jeh-tech\\ManageCertificates.png'
p61
L3033434108L
sS'..\\__deployed\\images\\jeh-tech\\linewidth_html_canv_centre_pixel_thick_line.png'
p62
L3987510883L
sS'..\\__deployed\\vi.html'
p63
L929418564L
sS'..\\__deployed\\images\\jeh-tech\\icons\\comment (1).png'
p64
L2685515417L
sS'..\\__deployed\\downloadables\\LookUpAMatrix.xlsx'
p65
L407926542L
sS'..\\__deployed\\images\\jeh-tech\\openquote1.gif'
p66
L1189697656L
sS'..\\__deployed\\fonts\\junction-regular.woff'
p67
L546278547L
sS'..\\__deployed\\images\\jeh-tech\\collapse.png'
p68
L3550564855L
sS'..\\__deployed\\images\\ui-bg_glass_75_dadada_1x400.png'
p69
L1941327539L
sS'..\\__deployed\\images\\jeh-tech\\Prob_A_and_B_independent.png'
p70
L1356869459L
sS'..\\__deployed\\images\\ui-icons_2e83ff_256x240.png'
p71
L1447391960L
sS'..\\__deployed\\jeh-monolith.css'
p72
L1812456805L
sS'..\\__deployed\\images\\jeh-tech\\solve_linear_equations_oops.png'
p73
L2753359592L
sS'..\\__deployed\\images\\jeh-tech\\icons\\alert.png'
p74
L3579709017L
sS'..\\__deployed\\images\\jeh-tech\\python\\2d_array.png'
p75
L3399284519L
sS'..\\__deployed\\images\\ui-bg_glass_65_ffffff_1x400.png'
p76
L3786289852L
sS'..\\__deployed\\fonts\\GoudyStM-webfont.eot'
p77
L1905039233L
sS'..\\__deployed\\downloadables\\CS310GeneticAlgsProject.pdf'
p78
L3762612930L
sS'..\\__deployed\\images\\jeh-tech\\Prob_A_and_B.vsd'
p79
L3537225410L
sS'..\\__deployed\\html_canvas.html'
p80
L3395986133L
sS'..\\__deployed\\fonts\\leaguespartan-bold.svg'
p81
L3450498539L
sS'..\\__deployed\\images\\jeh-tech\\wheatstone_is_non_linear.png'
p82
L3555603379L
sS'..\\__deployed\\contact.html'
p83
L321694627L
sS'..\\__deployed\\images\\jeh-tech\\dot_product_yorick_4.png'
p84
L3100869254L
sS'..\\__deployed\\images\\jeh-tech\\solve_linear_equations_oopsvsd.vsd'
p85
L871343761L
sS'..\\__deployed\\fonts\\leaguespartan-bold.eot'
p86
L3468735793L
sS'..\\__deployed\\images\\jeh-tech\\small_letter.png'
p87
L1976565072L
sS'..\\__deployed\\images\\jeh-tech\\python\\pandas_landreg.png'
p88
L490140588L
sS'..\\__deployed\\images\\jeh-tech\\python\\wxBoxSizerProportionsVerticallyWithoutExpandFlag.PNG'
p89
L1750511082L
sS'..\\__deployed\\images\\jeh-tech\\voltage_divider.png'
p90
L3692898269L
sS'..\\__deployed\\mvc.html'
p91
L3602275469L
sS'..\\__deployed\\fonts\\junction-regular.ttf'
p92
L2027175246L
sS'..\\__deployed\\python\\numpy.html'
p93
L3073557850L
sS'..\\__deployed\\mysql.html'
p94
L570654088L
sS'..\\__deployed\\fonts\\leaguespartan-bold.ttf'
p95
L117576886L
sS'..\\__deployed\\images\\jeh-tech\\solve_linear_equations.png'
p96
L2449082019L
sS'..\\__deployed\\images\\jeh-tech\\stats_venn_independent.png'
p97
L2296812629L
sS'..\\__deployed\\images\\jeh-tech\\conventional_current.png'
p98
L867764297L
sS'..\\__deployed\\images\\jeh-tech\\solve_linear_equations_norm.vsd'
p99
L2068162402L
sS'..\\__deployed\\images\\jeh-tech\\poisson_distrib.png'
p100
L12170513L
sS'..\\__deployed\\linux_script.html'
p101
L2239110126L
sS'..\\__deployed\\tcl.html'
p102
L2592370395L
sS'..\\__deployed\\images\\jeh-tech\\stats_venn_AandB.vsd'
p103
L2132835633L
sS'..\\__deployed\\images\\jeh-tech\\dot_product_normal.png'
p104
L2978237173L
sS'..\\__deployed\\python\\wxpython.html'
p105
L1398629987L
sS'..\\__deployed\\images\\jeh-tech\\linear_independence_2.png'
p106
L2208876737L
sS'..\\__deployed\\images\\jeh-tech\\3d_vectors_at_right_angles.png'
p107
L3107402110L
sS'..\\__deployed\\images\\jeh-tech\\excel_cell_now_student_dtopdown.PNG'
p108
L4055259327L
sS'..\\__deployed\\win_script.html'
p109
L1280273205L
sS'..\\__deployed\\images\\jeh-tech\\closequote1.gif'
p110
L800150224L
sS'..\\__deployed\\images\\jeh-tech\\dot_product_yorick_3.png'
p111
L1412312961L
sS'..\\__deployed\\images\\jeh-tech\\dot_product_yorick_2.png'
p112
L3153038181L
sS'..\\__deployed\\tst.html'
p113
L2625627270L
sS'..\\__deployed\\robots.txt'
p114
L1249323247L
sS'..\\__deployed\\images\\jeh-tech\\phasor_animation.gif'
p115
L569159480L
sS'..\\__deployed\\images\\jeh-tech\\excel_data_validation_dialog_completed.PNG'
p116
L1467967067L
sS'..\\__deployed\\images\\jeh-tech\\PCB_bkdg_ORIG.jpg'
p117
L3983032631L
sS'..\\__deployed\\images\\jeh-tech\\python\\btn_sizer_basic2.png'
p118
L1444321019L
sS'..\\__deployed\\images\\jeh-tech\\wheatstone_bridge.png'
p119
L1675069042L
sS'..\\__deployed\\misc.html'
p120
L565012014L
sS'..\\__deployed\\images\\jeh-tech\\icons\\comment.png'
p121
L2685515417L
sS'..\\__deployed\\images\\jeh-tech\\icons\\notepad - Copy.png'
p122
L2978188971L
sS'..\\__deployed\\images\\jeh-tech\\python\\boxsizerspacers.png'
p123
L1556427427L
sS'..\\__deployed\\R.html'
p124
L1072469011L
sS'..\\__deployed\\images\\jeh-tech\\linear_independence_1.png'
p125
L421541576L
sS'..\\__deployed\\images\\jeh-tech\\current_divider.png'
p126
L2822002574L
sS'..\\__deployed\\images\\jeh-tech\\icons\\notepad.png'
p127
L1373989924L
sS'..\\__deployed\\xml.html'
p128
L1448107867L
sS'..\\__deployed\\images\\jeh-tech\\big_letter.png'
p129
L3182695786L
sS'..\\__deployed\\images\\jeh-tech\\icons\\remove.png'
p130
L1255171720L
sS'..\\__deployed\\reCaptchaSecret.txt'
p131
L1L
sS'..\\__deployed\\dsp\\deconvolution.html'
p132
L22867404L
sS'..\\__deployed\\images\\jeh-tech\\SimpleDB_MVC_Problem.png'
p133
L346366740L
sS'..\\__deployed\\images\\jeh-tech\\icons\\tick.png'
p134
L3236721137L
sS'..\\__deployed\\images\\jeh-tech\\icons\\calendar.png'
p135
L2174384455L
sS'..\\__deployed\\images\\jeh-tech\\dot_product_yorick_2.vsd'
p136
L2259183631L
sS'..\\__deployed\\images\\jeh-tech\\Simple_DB_For_MVC_GUI.png'
p137
L1240744382L
sS'..\\__deployed\\images\\ui-bg_flat_75_ffffff_40x100.png'
p138
L4257363120L
sS'..\\__deployed\\images\\ui-bg_flat_0_aaaaaa_40x100.png'
p139
L2869310412L
sS'..\\__deployed\\images\\jeh-tech\\3d_vectors_at_right_angles.vsd'
p140
L4094985773L
sS'..\\__deployed\\images\\jeh-tech\\MVC_From_SmallTalk_Article.png'
p141
L4230329495L
sS'..\\__deployed\\downloadables\\notebooks\\output_css_2.ipynb'
p142
L2922861352L
sS'..\\__deployed\\images\\jeh-tech\\html5_canvas_half_pixel_rect.vsd'
p143
L992334237L
sS'..\\__deployed\\images\\jeh-tech\\TrustedRootCA_1.png'
p144
L2882934051L
sS'..\\__deployed\\images\\jeh-tech\\Prob_A_and_B_double_count.png'
p145
L3366997774L
sS'..\\__deployed\\test.html'
p146
L1125313975L
sS'..\\__deployed\\mathsy_stuff\\stats.html'
p147
L256072776L
sS'..\\__deployed\\downloadables\\notebooks\\output_css_1.ipynb'
p148
L2104413969L
sS'..\\__deployed\\images\\jeh-tech\\python\\wxBoxSizerProportionsWithoutExpandFlag.PNG'
p149
L3482132533L
sS'..\\__deployed\\images\\jeh-tech\\stats_venn_dependent.png'
p150
L2850045408L
sS'..\\__deployed\\fonts\\GoudyStM-webfont.ttf'
p151
L990476620L
sS'..\\__deployed\\images\\jeh-tech\\python\\btn_sizer_basic1.png'
p152
L3310678208L
sS'..\\__deployed\\images\\jeh-tech\\icons\\alert - Copy.png'
p153
L3656024312L
sS'..\\__deployed\\images\\ui-bg_glass_25_CAD7E3_1x400.png'
p154
L3950344369L
sS'..\\__deployed\\images\\jeh-tech\\Prob_A_and_B_dependent.png'
p155
L2745626359L
sS'..\\__deployed\\images\\jeh-tech\\python\\coloured_bar_graph.png'
p156
L3378136661L
sS'..\\__deployed\\images\\ui-icons_222222_256x240.png'
p157
L3779470207L
sS'..\\__deployed\\fonts\\junction-bold.eot'
p158
L2615998327L
sS'..\\__deployed\\images\\jeh-tech\\YorickRubberIndex.png'
p159
L1643207438L
sS'..\\__deployed\\fonts\\leaguespartan-bold.woff'
p160
L2954346416L
sS'..\\__deployed\\images\\jeh-tech\\dot_product_yorick_1.png'
p161
L3804603984L
sS'..\\__deployed\\images\\jeh-tech\\Fotolia_67029924_L_ORIG.jpg'
p162
L3184733182L
sS'..\\__deployed\\images\\jeh-tech\\python\\boxsizerspacers.vsd'
p163
L498638615L
sS'..\\__deployed\\electronics.html'
p164
L2347863865L
sS'..\\__deployed\\index.html'
p165
L227773538L
sS'..\\__deployed\\images\\jeh-tech\\expand.png'
p166
L3361828286L
sS'..\\__deployed\\images\\jeh-tech\\yorick_broadcast.png'
p167
L1205122955L
sS'..\\__deployed\\images\\jeh-tech\\warning.png'
p168
L1543352469L
sS'..\\__deployed\\images\\jeh-tech\\linear_independence.vsd'
p169
L3350340040L
sS'..\\__deployed\\images\\jeh-tech\\array_3d.vsd'
p170
L2525432146L
sS'..\\__deployed\\quotes.html'
p171
L1888230480L
sS'..\\__deployed\\images\\jeh-tech\\bayes_bbbr_decision_tree.png'
p172
L2807266243L
sS'..\\__deployed\\images\\jeh-tech\\medium_letter.png'
p173
L4244637453L
sS'..\\__deployed\\mathsy_stuff\\math_revision.html'
p174
L1067820772L
sS'..\\__deployed\\ssl.html'
p175
L1717309447L
sS'..\\__deployed\\images\\jeh-tech\\excel_add_data_validation_steps.PNG'
p176
L3810558145L
sS'..\\__deployed\\python\\python.html'
p177
L1555949386L
sS'..\\__deployed\\images\\jeh-tech\\excel_data_select_icon.PNG'
p178
L798419141L
sS'..\\__deployed\\downloadables\\notebooks\\output_css_3.ipynb'
p179
L3785873345L
sS'..\\__deployed\\images\\jeh-tech\\binomial_distrib_example.png'
p180
L1420567837L
sS'..\\__deployed\\images\\jeh-tech\\TrustedRootCA_2.png'
p181
L3414516328L
sS'..\\__deployed\\images\\jeh-tech\\single_dim_inner_prod.png'
p182
L2082605890L
sS'..\\__deployed\\yorick.html'
p183
L1075272981L
sS'..\\__deployed\\images\\jeh-tech\\icons\\users.png'
p184
L3423979133L
sS'..\\__deployed\\images\\jeh-tech\\icons\\add.png'
p185
L2532743502L
sS'..\\__deployed\\images\\jeh-tech\\single_dim_inner_prod.vsd'
p186
L101541400L
sS'..\\__deployed\\images\\jeh-tech\\python\\wxBoxSizerProportionsWithExpandFlag.PNG'
p187
L1434919532L
sS'..\\__deployed\\fonts\\GoudyStM-webfont.woff'
p188
L2522536683L
sS'..\\__deployed\\downloadables\\notebooks\\mpld3_example.ipynb'
p189
L1401125510L
sS'..\\__deployed\\images\\jeh-tech\\big_letter.vsd'
p190
L1131303738L
sS'..\\__deployed\\images\\jeh-tech\\excel_table_test_score_want_list.PNG'
p191
L1173910598L
s.